Certificate:
    Data:
        Version: 3 (0x2)
        Serial Number: 1 (0x1)
        Signature Algorithm: sha256WithRSAEncryption
        Issuer: C=GL, ST=New World, L=Raftel, O=Straw Hat Networking/emailAddress=ca@strawhat.com, CN=ca.strawhat.com
        Validity
            Not Before: Dec 16 09:09:20 2023 GMT
            Not After : Feb 14 09:09:20 2024 GMT
        Subject: C=GL, ST=New World, O=Straw Hat Networking, CN=radius.strawhat.com/emailAddress=radius@strawhat.com
        Subject Public Key Info:
            Public Key Algorithm: rsaEncryption
                Public-Key: (2048 bit)
                Modulus:
                    00:cf:9f:69:13:f7:8a:c5:75:dd:0f:58:d4:0a:6a:
                    fe:a6:df:9e:e8:27:1f:36:8a:ef:08:fd:a8:1d:f5:
                    73:f9:4c:96:e3:3b:9b:b5:db:d5:b3:12:35:8b:78:
                    de:68:84:d4:f4:98:45:9d:ca:0b:6f:b1:62:9a:fd:
                    6f:52:55:ae:b6:00:16:e6:30:9d:fc:b9:5e:61:16:
                    ef:30:c0:b1:d9:af:f4:20:66:e3:1b:37:9e:12:dc:
                    91:cc:ad:7d:bc:5b:fc:f4:4e:fc:ae:77:9f:90:64:
                    bb:26:34:e0:49:fc:18:46:ce:20:97:7c:d5:b3:c3:
                    a8:30:b2:b9:6c:be:dc:f8:9f:e6:f3:bb:e1:ef:ef:
                    3d:16:86:a6:64:61:d1:71:ed:e7:b9:bd:7e:d0:cc:
                    8e:9b:f6:82:d2:a6:76:f2:d4:b7:4d:41:21:7d:7b:
                    dc:91:93:fe:47:fa:39:68:62:52:ad:80:ed:f7:ab:
                    17:f2:2d:b9:07:9d:d4:5b:fc:56:6b:e8:99:9b:80:
                    26:33:ea:be:29:4c:a9:14:93:69:51:59:b5:41:5a:
                    ec:48:be:ae:3e:87:05:15:54:68:49:96:93:35:b8:
                    20:cb:89:34:61:3b:fb:26:3a:9a:f2:91:36:01:a2:
                    1d:dc:f7:3a:94:61:13:79:78:ec:2f:ba:8e:85:22:
                    03:35
                Exponent: 65537 (0x10001)
        X509v3 extensions:
            X509v3 Extended Key Usage: 
                TLS Web Server Authentication
            X509v3 CRL Distribution Points: 
                Full Name:
                  URI:http://www.strawhat.com/ca.crl
            X509v3 Subject Key Identifier: 
                A8:1D:10:9C:23:B7:68:03:21:98:76:30:BB:B7:26:18:13:2F:5E:0F
            X509v3 Authority Key Identifier: 
                0A:93:78:F7:01:F4:60:F6:F6:C4:EA:F8:F5:01:7C:62:29:9A:26:AA
    Signature Algorithm: sha256WithRSAEncryption
    Signature Value:
        1f:cc:51:99:c9:a0:f2:ae:f3:16:64:ad:ee:10:63:09:c2:b0:
        be:1d:2b:f5:90:ae:db:37:7e:34:df:49:31:9d:8a:98:7f:f3:
        4d:ac:73:44:1f:22:bb:0d:2b:cf:d4:bd:ed:4b:e1:b5:b4:ec:
        1d:a5:d7:13:af:63:4b:0e:bb:19:6d:4b:57:af:b6:d9:a0:06:
        fc:1a:5a:be:59:5b:a9:69:7f:9c:80:9c:e7:91:a4:ab:9d:4b:
        20:c2:6d:83:d7:04:04:88:13:00:12:21:16:75:67:4c:99:2e:
        b9:fd:25:69:5f:71:f7:54:63:f6:59:f9:53:09:da:06:de:18:
        30:86:1c:e5:8e:2b:09:45:ac:f7:01:49:f2:88:68:c3:6d:77:
        c6:bf:65:71:86:d7:bf:39:9b:8e:0f:e3:05:95:e2:7b:92:3b:
        08:2d:53:75:5e:94:0c:9d:e0:d8:9c:e9:51:3e:fa:fb:00:a1:
        54:51:f7:e3:cb:a7:9d:68:c6:7f:8a:2b:47:14:73:b8:8b:8d:
        ae:8f:60:48:ed:19:47:04:d5:33:78:11:dd:55:47:ea:c4:25:
        c7:17:3b:a1:1d:37:61:bc:dd:ba:e7:8e:6f:fe:c6:3c:0e:76:
        cc:df:c0:fc:e3:da:18:23:27:60:81:90:7a:b3:cd:dd:2d:7a:
        b6:25:7e:ed
-----BEGIN CERTIFICATE-----
MIIEFDCCAvygAwIBAgIBATANBgkqhkiG9w0BAQsFADCBizELMAkGA1UEBhMCR0wx
EjAQBgNVBAgMCU5ldyBXb3JsZDEPMA0GA1UEBwwGUmFmdGVsMR0wGwYDVQQKDBRT
dHJhdyBIYXQgTmV0d29ya2luZzEeMBwGCSqGSIb3DQEJARYPY2FAc3RyYXdoYXQu
Y29tMRgwFgYDVQQDDA9jYS5zdHJhd2hhdC5jb20wHhcNMjMxMjE2MDkwOTIwWhcN
MjQwMjE0MDkwOTIwWjCBgjELMAkGA1UEBhMCR0wxEjAQBgNVBAgMCU5ldyBXb3Js
ZDEdMBsGA1UECgwUU3RyYXcgSGF0IE5ldHdvcmtpbmcxHDAaBgNVBAMME3JhZGl1
cy5zdHJhd2hhdC5jb20xIjAgBgkqhkiG9w0BCQEWE3JhZGl1c0BzdHJhd2hhdC5j
b20wggEiMA0GCSqGSIb3DQEBAQUAA4IBDwAwggEKAoIBAQDPn2kT94rFdd0PWNQK
av6m357oJx82iu8I/agd9XP5TJbjO5u129WzEjWLeN5ohNT0mEWdygtvsWKa/W9S
Va62ABbmMJ38uV5hFu8wwLHZr/QgZuMbN54S3JHMrX28W/z0Tvyud5+QZLsmNOBJ
/BhGziCXfNWzw6gwsrlsvtz4n+bzu+Hv7z0WhqZkYdFx7ee5vX7QzI6b9oLSpnby
1LdNQSF9e9yRk/5H+jloYlKtgO33qxfyLbkHndRb/FZr6JmbgCYz6r4pTKkUk2lR
WbVBWuxIvq4+hwUVVGhJlpM1uCDLiTRhO/smOprykTYBoh3c9zqUYRN5eOwvuo6F
IgM1AgMBAAGjgYkwgYYwEwYDVR0lBAwwCgYIKwYBBQUHAwEwLwYDVR0fBCgwJjAk
oCKgIIYeaHR0cDovL3d3dy5zdHJhd2hhdC5jb20vY2EuY3JsMB0GA1UdDgQWBBSo
HRCcI7doAyGYdjC7tyYYEy9eDzAfBgNVHSMEGDAWgBQKk3j3AfRg9vbE6vj1AXxi
KZomqjANBgkqhkiG9w0BAQsFAAOCAQEAH8xRmcmg8q7zFmSt7hBjCcKwvh0r9ZCu
2zd+NN9JMZ2KmH/zTaxzRB8iuw0rz9S97UvhtbTsHaXXE69jSw67GW1LV6+22aAG
/BpavllbqWl/nICc55Gkq51LIMJtg9cEBIgTABIhFnVnTJkuuf0laV9x91Rj9ln5
UwnaBt4YMIYc5Y4rCUWs9wFJ8ohow213xr9lcYbXvzmbjg/jBZXie5I7CC1TdV6U
DJ3g2JzpUT76+wChVFH348unnWjGf4orRxRzuIuNro9gSO0ZRwTVM3gR3VVH6sQl
xxc7oR03YbzduueOb/7GPA52zN/A/OPaGCMnYIGQerPN3S16tiV+7Q==
-----END CERTIFICATE-----
