Certificate:
    Data:
        Version: 3 (0x2)
        Serial Number: 2 (0x2)
        Signature Algorithm: sha256WithRSAEncryption
        Issuer: C=GL, ST=New World, L=Raftel, O=Straw Hat Networking/emailAddress=ca@strawhat.com, CN=ca.strawhat.com
        Validity
            Not Before: Dec 16 09:07:54 2023 GMT
            Not After : Feb 14 09:07:54 2024 GMT
        Subject: C=GL, ST=New World, O=Straw Hat Networking, CN=luffy@strawhat.com/emailAddress=luffy@strawhat.com
        Subject Public Key Info:
            Public Key Algorithm: rsaEncryption
                Public-Key: (2048 bit)
                Modulus:
                    00:8c:0f:31:a8:26:de:1b:19:96:06:cd:ab:84:4e:
                    35:87:56:6e:59:a3:c1:35:9a:d5:ad:0b:2a:3e:42:
                    39:3e:f8:6d:fc:29:b7:d9:4e:26:fe:fc:58:61:ac:
                    07:ce:76:ef:a5:39:bd:db:1e:bc:a4:7d:a2:59:65:
                    33:f7:bc:23:a7:42:69:7c:86:e5:f0:99:71:ed:55:
                    2f:22:39:33:cc:55:ad:a4:f0:06:06:57:c2:67:2b:
                    d5:54:13:88:ed:5a:e5:6e:f1:29:6d:7a:73:75:20:
                    48:2b:e6:93:f5:e8:e0:b8:cc:d0:2c:11:58:98:d4:
                    bc:d7:f6:ed:b4:1a:0b:6b:6d:65:fe:eb:88:19:2a:
                    a1:7f:92:b5:be:68:95:b8:3a:45:34:18:78:28:f9:
                    c0:a4:31:10:bd:68:ee:50:e6:65:58:3d:06:e6:b6:
                    07:f4:fe:89:ea:f5:8d:ed:12:c8:bf:ca:1f:a3:d3:
                    42:85:43:65:94:bd:ed:5d:04:2a:73:9f:3c:f2:98:
                    5b:02:f9:82:a5:e1:1a:e8:c4:98:c2:58:54:ac:c2:
                    6b:e7:82:a2:3c:fe:c0:55:d0:e6:cc:5e:c1:b2:df:
                    f0:bf:34:de:5d:1f:9f:d4:8d:1e:16:53:1d:f4:50:
                    11:44:ef:75:18:9c:da:8c:2f:4a:8b:8c:1a:3d:2f:
                    b8:65
                Exponent: 65537 (0x10001)
        X509v3 extensions:
            X509v3 Extended Key Usage: 
                TLS Web Client Authentication
            X509v3 CRL Distribution Points: 
                Full Name:
                  URI:http://www.strawhat.com/ca.crl
            X509v3 Subject Key Identifier: 
                B1:E8:99:9D:62:55:07:17:BD:22:A5:96:A2:27:D0:AF:25:EF:D1:C7
            X509v3 Authority Key Identifier: 
                95:E5:CD:05:28:94:50:06:CC:5F:06:94:30:78:AC:4A:60:82:40:E3
    Signature Algorithm: sha256WithRSAEncryption
    Signature Value:
        7a:f6:d3:12:ac:f4:06:26:82:52:d7:a5:ba:88:fd:d4:e3:41:
        43:22:59:b2:ca:31:7e:87:2b:d7:ac:70:63:0b:ca:d1:0f:c8:
        1b:2a:1a:f8:00:1f:89:dd:5f:64:46:ed:0f:a6:aa:d7:5b:e7:
        e3:9b:05:33:3f:47:6a:39:32:1b:29:3c:e2:b8:f0:43:8e:d5:
        ab:53:5f:65:fb:87:4f:63:c2:ec:74:27:c2:99:f6:0a:a1:21:
        99:fb:66:a5:ce:ce:80:69:e8:bf:79:ce:5f:86:32:f3:da:8e:
        4b:40:0e:d5:53:c3:7c:ef:c2:dc:26:f7:2a:8a:40:d1:d5:be:
        59:2f:20:74:9a:94:d3:b6:0f:0c:6e:b6:3c:84:3e:c5:bb:5e:
        0a:c2:75:ef:23:9d:02:98:c9:ba:0f:5b:14:80:47:ee:d5:f2:
        b9:fc:ff:6b:75:df:5a:60:9a:24:a4:d9:1c:d5:45:cc:15:06:
        36:26:d5:6b:c7:46:20:38:dd:69:c3:9d:db:56:57:60:55:37:
        87:05:04:98:05:d5:59:a1:b7:e0:2a:b3:0b:e3:a9:9c:12:32:
        fb:e9:d8:4c:7e:01:2f:b5:03:e0:7d:88:7f:f4:20:e4:5c:cb:
        54:b2:cb:ff:c7:b7:6b:b0:e5:67:1d:10:46:00:46:81:11:38:
        47:c5:1e:f7
-----BEGIN CERTIFICATE-----
MIIEEjCCAvqgAwIBAgIBAjANBgkqhkiG9w0BAQsFADCBizELMAkGA1UEBhMCR0wx
EjAQBgNVBAgMCU5ldyBXb3JsZDEPMA0GA1UEBwwGUmFmdGVsMR0wGwYDVQQKDBRT
dHJhdyBIYXQgTmV0d29ya2luZzEeMBwGCSqGSIb3DQEJARYPY2FAc3RyYXdoYXQu
Y29tMRgwFgYDVQQDDA9jYS5zdHJhd2hhdC5jb20wHhcNMjMxMjE2MDkwNzU0WhcN
MjQwMjE0MDkwNzU0WjCBgDELMAkGA1UEBhMCR0wxEjAQBgNVBAgMCU5ldyBXb3Js
ZDEdMBsGA1UECgwUU3RyYXcgSGF0IE5ldHdvcmtpbmcxGzAZBgNVBAMMEmx1ZmZ5
QHN0cmF3aGF0LmNvbTEhMB8GCSqGSIb3DQEJARYSbHVmZnlAc3RyYXdoYXQuY29t
MIIBIjANBgkqhkiG9w0BAQEFAAOCAQ8AMIIBCgKCAQEAjA8xqCbeGxmWBs2rhE41
h1ZuWaPBNZrVrQsqPkI5Pvht/Cm32U4m/vxYYawHznbvpTm92x68pH2iWWUz97wj
p0JpfIbl8Jlx7VUvIjkzzFWtpPAGBlfCZyvVVBOI7VrlbvEpbXpzdSBIK+aT9ejg
uMzQLBFYmNS81/bttBoLa21l/uuIGSqhf5K1vmiVuDpFNBh4KPnApDEQvWjuUOZl
WD0G5rYH9P6J6vWN7RLIv8ofo9NChUNllL3tXQQqc5888phbAvmCpeEa6MSYwlhU
rMJr54KiPP7AVdDmzF7Bst/wvzTeXR+f1I0eFlMd9FARRO91GJzajC9Ki4waPS+4
ZQIDAQABo4GJMIGGMBMGA1UdJQQMMAoGCCsGAQUFBwMCMC8GA1UdHwQoMCYwJKAi
oCCGHmh0dHA6Ly93d3cuc3RyYXdoYXQuY29tL2NhLmNybDAdBgNVHQ4EFgQUseiZ
nWJVBxe9IqWWoifQryXv0ccwHwYDVR0jBBgwFoAUleXNBSiUUAbMXwaUMHisSmCC
QOMwDQYJKoZIhvcNAQELBQADggEBAHr20xKs9AYmglLXpbqI/dTjQUMiWbLKMX6H
K9escGMLytEPyBsqGvgAH4ndX2RG7Q+mqtdb5+ObBTM/R2o5MhspPOK48EOO1atT
X2X7h09jwux0J8KZ9gqhIZn7ZqXOzoBp6L95zl+GMvPajktADtVTw3zvwtwm9yqK
QNHVvlkvIHSalNO2DwxutjyEPsW7XgrCde8jnQKYyboPWxSAR+7V8rn8/2t131pg
miSk2RzVRcwVBjYm1WvHRiA43WnDndtWV2BVN4cFBJgF1Vmht+AqswvjqZwSMvvp
2Ex+AS+1A+B9iH/0IORcy1Syy//Ht2uw5WcdEEYARoEROEfFHvc=
-----END CERTIFICATE-----
