Certificate:
    Data:
        Version: 3 (0x2)
        Serial Number: 1 (0x1)
        Signature Algorithm: sha256WithRSAEncryption
        Issuer: C=GL, ST=New World, L=Raftel, O=Straw Hat Networking/emailAddress=ca@strawhat.com, CN=ca.strawhat.com
        Validity
            Not Before: Dec 16 09:07:48 2023 GMT
            Not After : Feb 14 09:07:48 2024 GMT
        Subject: C=GL, ST=New World, O=Straw Hat Networking, CN=radius.strawhat.com/emailAddress=radius@strawhat.com
        Subject Public Key Info:
            Public Key Algorithm: rsaEncryption
                Public-Key: (2048 bit)
                Modulus:
                    00:d6:da:a3:aa:2f:dd:fd:95:f4:2b:ff:ed:33:e9:
                    4a:c3:1b:84:be:f8:15:d0:2a:5f:34:0c:1d:dd:c3:
                    e4:1e:b2:70:79:cf:5f:b2:00:83:0c:c8:c2:1f:4b:
                    57:be:2d:6c:da:6b:45:f4:cf:2d:2c:7f:15:a4:53:
                    ed:91:a8:60:32:8b:67:b9:db:e8:e2:6d:c8:7f:e7:
                    da:df:d9:fe:ec:47:83:b3:82:28:2f:1f:fe:45:d6:
                    45:f1:e9:63:11:00:c2:70:e5:8c:46:66:c3:c9:20:
                    43:34:80:3a:68:3f:3a:bd:98:da:6e:b9:2f:23:9d:
                    a7:b8:2b:10:00:4a:95:de:bc:f3:ea:8c:2b:a0:29:
                    64:4f:4f:ca:b0:a5:3d:f3:6c:aa:86:e3:b0:a0:3e:
                    af:4a:b2:a4:63:1c:8f:b6:ec:d5:7e:84:ee:af:df:
                    c4:a2:b6:fc:06:19:5c:8b:ad:96:2e:c3:27:33:79:
                    29:92:bc:c7:52:96:9e:5d:69:82:a6:01:fe:2f:f2:
                    e2:3a:e1:fa:4d:a9:73:10:c2:51:62:64:98:99:fd:
                    40:71:f1:0b:7a:9c:0b:24:e8:55:ee:90:68:8f:c6:
                    4b:55:5f:78:dd:69:cc:66:e0:d3:19:c2:06:59:35:
                    c1:d1:6d:e9:91:71:77:18:cb:77:41:69:81:f0:21:
                    42:47
                Exponent: 65537 (0x10001)
        X509v3 extensions:
            X509v3 Extended Key Usage: 
                TLS Web Server Authentication
            X509v3 CRL Distribution Points: 
                Full Name:
                  URI:http://www.strawhat.com/ca.crl
            X509v3 Subject Key Identifier: 
                B8:CA:14:4C:76:AA:1C:82:9D:E8:7D:5E:1E:AD:FF:67:FB:C1:4E:D9
            X509v3 Authority Key Identifier: 
                95:E5:CD:05:28:94:50:06:CC:5F:06:94:30:78:AC:4A:60:82:40:E3
    Signature Algorithm: sha256WithRSAEncryption
    Signature Value:
        84:32:70:69:38:31:36:6f:4e:36:5d:27:4e:c9:cd:14:5b:c1:
        9b:24:b2:50:63:94:56:c6:c2:a4:a6:44:49:3a:3a:fd:6f:a4:
        03:42:25:40:31:b4:78:a5:a9:ea:12:8e:27:41:87:4b:85:01:
        40:00:42:f0:6f:1a:3b:82:d2:b0:aa:7b:4b:59:6b:9c:5d:bb:
        76:2a:c7:7a:2a:db:cb:25:0a:e3:73:8b:d5:d7:77:c3:3c:67:
        3d:01:69:76:e9:6b:8b:1b:11:31:68:d7:fc:d2:86:71:2d:f2:
        1a:dd:cd:33:4d:06:b5:e6:a8:27:34:b8:6d:e4:a6:6a:78:ca:
        c6:e3:71:1e:f3:e6:bd:cb:19:0f:97:5a:90:8a:dc:d2:f5:52:
        a9:83:f8:77:8b:5a:d7:15:43:91:7c:54:94:8f:60:a7:f6:19:
        d8:aa:9f:90:b5:3e:b5:86:29:96:f5:bd:d2:22:2f:cd:95:9d:
        d5:67:26:45:a1:20:c9:fb:a7:cf:81:74:5d:41:e9:39:72:08:
        34:bf:38:06:76:a7:2b:f3:66:98:7b:c8:df:39:21:f8:6e:26:
        7f:02:56:71:a1:0f:ad:f4:8b:6f:4e:d1:89:5f:a6:a7:1d:3b:
        8b:b9:d5:3d:91:57:9e:e9:da:be:d8:54:38:48:05:32:1b:ab:
        fc:a5:b3:a4
-----BEGIN CERTIFICATE-----
MIIEFDCCAvygAwIBAgIBATANBgkqhkiG9w0BAQsFADCBizELMAkGA1UEBhMCR0wx
EjAQBgNVBAgMCU5ldyBXb3JsZDEPMA0GA1UEBwwGUmFmdGVsMR0wGwYDVQQKDBRT
dHJhdyBIYXQgTmV0d29ya2luZzEeMBwGCSqGSIb3DQEJARYPY2FAc3RyYXdoYXQu
Y29tMRgwFgYDVQQDDA9jYS5zdHJhd2hhdC5jb20wHhcNMjMxMjE2MDkwNzQ4WhcN
MjQwMjE0MDkwNzQ4WjCBgjELMAkGA1UEBhMCR0wxEjAQBgNVBAgMCU5ldyBXb3Js
ZDEdMBsGA1UECgwUU3RyYXcgSGF0IE5ldHdvcmtpbmcxHDAaBgNVBAMME3JhZGl1
cy5zdHJhd2hhdC5jb20xIjAgBgkqhkiG9w0BCQEWE3JhZGl1c0BzdHJhd2hhdC5j
b20wggEiMA0GCSqGSIb3DQEBAQUAA4IBDwAwggEKAoIBAQDW2qOqL939lfQr/+0z
6UrDG4S++BXQKl80DB3dw+QesnB5z1+yAIMMyMIfS1e+LWzaa0X0zy0sfxWkU+2R
qGAyi2e52+jibch/59rf2f7sR4OzgigvH/5F1kXx6WMRAMJw5YxGZsPJIEM0gDpo
Pzq9mNpuuS8jnae4KxAASpXevPPqjCugKWRPT8qwpT3zbKqG47CgPq9KsqRjHI+2
7NV+hO6v38SitvwGGVyLrZYuwyczeSmSvMdSlp5daYKmAf4v8uI64fpNqXMQwlFi
ZJiZ/UBx8Qt6nAsk6FXukGiPxktVX3jdacxm4NMZwgZZNcHRbemRcXcYy3dBaYHw
IUJHAgMBAAGjgYkwgYYwEwYDVR0lBAwwCgYIKwYBBQUHAwEwLwYDVR0fBCgwJjAk
oCKgIIYeaHR0cDovL3d3dy5zdHJhd2hhdC5jb20vY2EuY3JsMB0GA1UdDgQWBBS4
yhRMdqocgp3ofV4erf9n+8FO2TAfBgNVHSMEGDAWgBSV5c0FKJRQBsxfBpQweKxK
YIJA4zANBgkqhkiG9w0BAQsFAAOCAQEAhDJwaTgxNm9ONl0nTsnNFFvBmySyUGOU
VsbCpKZESTo6/W+kA0IlQDG0eKWp6hKOJ0GHS4UBQABC8G8aO4LSsKp7S1lrnF27
dirHeirbyyUK43OL1dd3wzxnPQFpdulrixsRMWjX/NKGcS3yGt3NM00GteaoJzS4
beSmanjKxuNxHvPmvcsZD5dakIrc0vVSqYP4d4ta1xVDkXxUlI9gp/YZ2KqfkLU+
tYYplvW90iIvzZWd1WcmRaEgyfunz4F0XUHpOXIINL84BnanK/NmmHvI3zkh+G4m
fwJWcaEPrfSLb07RiV+mpx07i7nVPZFXnunavthUOEgFMhur/KWzpA==
-----END CERTIFICATE-----
