Certificate:
    Data:
        Version: 3 (0x2)
        Serial Number: 1 (0x1)
        Signature Algorithm: sha256WithRSAEncryption
        Issuer: C=FR, ST=Radius, L=Somewhere, O=Example Inc./emailAddress=admin@example.org, CN=Example Certificate Authority
        Validity
            Not Before: Dec 20 14:38:43 2023 GMT
            Not After : Feb 18 14:38:43 2024 GMT
        Subject: C=FR, ST=Radius, O=Example Inc., CN=Example Server Certificate/emailAddress=admin@example.org
        Subject Public Key Info:
            Public Key Algorithm: rsaEncryption
                Public-Key: (2048 bit)
                Modulus:
                    00:c6:7d:e5:2f:2c:a9:77:82:d5:53:b7:5f:ae:87:
                    16:8f:c5:dc:b2:7c:b3:17:b9:5a:3a:25:0b:d7:8c:
                    18:da:4a:f7:9a:b3:3a:81:21:fa:a4:d1:8f:44:3d:
                    c7:76:f4:60:69:4d:b8:7c:09:24:cf:75:73:f9:72:
                    0e:85:cc:aa:4c:a3:6d:5a:d7:33:8c:d6:f0:99:2d:
                    34:87:7d:ea:50:a1:03:00:85:1c:8b:6a:a3:77:1b:
                    57:19:ab:e9:dc:8a:d1:06:a0:f9:1d:9f:da:76:b0:
                    90:cd:1b:18:58:13:7f:b5:7c:19:8e:f6:78:d4:94:
                    31:97:9d:82:e8:ab:41:a3:d0:06:92:d5:fa:a5:51:
                    1a:b8:c9:70:4a:ab:dd:02:1d:d0:91:e4:f4:0a:10:
                    52:49:ce:c1:ed:b8:71:db:cc:8f:6d:1e:d2:88:b7:
                    bf:21:97:1e:e1:05:d6:5b:ed:4d:e5:42:60:2f:63:
                    09:54:3c:ef:12:97:62:92:f3:1b:30:58:1d:44:d9:
                    29:6a:f5:9b:cf:1d:58:d2:57:e6:71:3a:cd:fc:e6:
                    50:76:ac:04:3d:6e:13:91:a8:05:65:14:bb:03:8d:
                    96:3e:a6:e5:5c:77:24:16:dc:6a:24:32:fb:a2:26:
                    e7:be:05:f6:af:6b:d9:46:e3:a8:16:45:8e:60:9c:
                    14:d7
                Exponent: 65537 (0x10001)
        X509v3 extensions:
            X509v3 Extended Key Usage: 
                TLS Web Server Authentication
            X509v3 CRL Distribution Points: 
                Full Name:
                  URI:http://www.example.com/example_ca.crl
            X509v3 Certificate Policies: 
                Policy: 1.3.6.1.4.1.40808.1.3.2
            X509v3 Subject Key Identifier: 
                70:F3:20:43:D5:F7:63:49:52:1E:B6:E6:74:FB:5B:27:79:8E:F7:3F
            X509v3 Authority Key Identifier: 
                AA:BB:B8:28:79:FC:59:C9:A6:82:8B:36:AF:1A:67:7F:1F:08:1A:FC
    Signature Algorithm: sha256WithRSAEncryption
    Signature Value:
        af:58:d4:58:c2:2d:ab:0b:c0:a0:85:df:9e:f3:ed:67:83:e7:
        3a:66:bc:f3:92:50:c2:57:81:b8:60:4f:3a:61:17:b8:2a:77:
        08:4d:53:ba:ea:c3:1d:da:49:3b:c1:6c:5c:28:eb:92:70:1c:
        4d:fb:06:1d:d7:75:17:19:85:9e:5c:62:c9:bb:9c:67:90:93:
        77:a5:77:06:28:ed:95:67:be:35:5b:c9:8f:e1:43:c0:66:b4:
        48:79:55:d9:1f:ae:55:5c:75:7e:3b:d2:31:c8:2e:fa:ec:fd:
        88:8d:d9:7a:94:57:c2:62:e2:78:b3:fb:da:f7:02:51:84:f0:
        c3:f7:02:b6:ea:83:37:c8:49:aa:0b:bb:2b:42:c7:58:68:2c:
        e6:92:b0:75:48:e2:3d:78:0d:4d:cc:fe:d6:65:18:d7:98:42:
        35:a5:b5:95:ee:10:78:82:ef:de:44:94:97:5e:2f:be:9f:38:
        b0:6c:7b:3e:09:87:06:41:18:09:ce:98:34:2f:9c:48:7a:b8:
        66:d8:84:51:28:d0:eb:8d:b8:d2:4a:1f:69:78:f4:1c:c4:ab:
        81:3a:51:67:02:d9:60:03:08:74:48:f4:25:b8:38:16:4e:3c:
        34:19:af:9c:ac:50:75:57:71:cf:5d:87:bd:38:ef:6a:2a:32:
        11:e1:39:98
-----BEGIN CERTIFICATE-----
MIIENjCCAx6gAwIBAgIBATANBgkqhkiG9w0BAQsFADCBkzELMAkGA1UEBhMCRlIx
DzANBgNVBAgMBlJhZGl1czESMBAGA1UEBwwJU29tZXdoZXJlMRUwEwYDVQQKDAxF
eGFtcGxlIEluYy4xIDAeBgkqhkiG9w0BCQEWEWFkbWluQGV4YW1wbGUub3JnMSYw
JAYDVQQDDB1FeGFtcGxlIENlcnRpZmljYXRlIEF1dGhvcml0eTAeFw0yMzEyMjAx
NDM4NDNaFw0yNDAyMTgxNDM4NDNaMHwxCzAJBgNVBAYTAkZSMQ8wDQYDVQQIDAZS
YWRpdXMxFTATBgNVBAoMDEV4YW1wbGUgSW5jLjEjMCEGA1UEAwwaRXhhbXBsZSBT
ZXJ2ZXIgQ2VydGlmaWNhdGUxIDAeBgkqhkiG9w0BCQEWEWFkbWluQGV4YW1wbGUu
b3JnMIIBIjANBgkqhkiG9w0BAQEFAAOCAQ8AMIIBCgKCAQEAxn3lLyypd4LVU7df
rocWj8XcsnyzF7laOiUL14wY2kr3mrM6gSH6pNGPRD3HdvRgaU24fAkkz3Vz+XIO
hcyqTKNtWtczjNbwmS00h33qUKEDAIUci2qjdxtXGavp3IrRBqD5HZ/adrCQzRsY
WBN/tXwZjvZ41JQxl52C6KtBo9AGktX6pVEauMlwSqvdAh3QkeT0ChBSSc7B7bhx
28yPbR7SiLe/IZce4QXWW+1N5UJgL2MJVDzvEpdikvMbMFgdRNkpavWbzx1Y0lfm
cTrN/OZQdqwEPW4TkagFZRS7A42WPqblXHckFtxqJDL7oibnvgX2r2vZRuOoFkWO
YJwU1wIDAQABo4GqMIGnMBMGA1UdJQQMMAoGCCsGAQUFBwMBMDYGA1UdHwQvMC0w
K6ApoCeGJWh0dHA6Ly93d3cuZXhhbXBsZS5jb20vZXhhbXBsZV9jYS5jcmwwGAYD
VR0gBBEwDzANBgsrBgEEAYK+aAEDAjAdBgNVHQ4EFgQUcPMgQ9X3Y0lSHrbmdPtb
J3mO9z8wHwYDVR0jBBgwFoAUqru4KHn8Wcmmgos2rxpnfx8IGvwwDQYJKoZIhvcN
AQELBQADggEBAK9Y1FjCLasLwKCF357z7WeD5zpmvPOSUMJXgbhgTzphF7gqdwhN
U7rqwx3aSTvBbFwo65JwHE37Bh3XdRcZhZ5cYsm7nGeQk3eldwYo7ZVnvjVbyY/h
Q8BmtEh5VdkfrlVcdX470jHILvrs/YiN2XqUV8Ji4niz+9r3AlGE8MP3ArbqgzfI
SaoLuytCx1hoLOaSsHVI4j14DU3M/tZlGNeYQjWltZXuEHiC795ElJdeL76fOLBs
ez4JhwZBGAnOmDQvnEh6uGbYhFEo0OuNuNJKH2l49BzEq4E6UWcC2WADCHRI9CW4
OBZOPDQZr5ysUHVXcc9dh70472oqMhHhOZg=
-----END CERTIFICATE-----
