Certificate:
    Data:
        Version: 3 (0x2)
        Serial Number: 2 (0x2)
        Signature Algorithm: sha256WithRSAEncryption
        Issuer: C=FR, ST=Radius, L=Somewhere, O=Example Inc./emailAddress=admin@example.org, CN=Example Certificate Authority
        Validity
            Not Before: Dec 20 14:38:48 2023 GMT
            Not After : Feb 18 14:38:48 2024 GMT
        Subject: C=FR, ST=Radius, O=Example Inc., CN=bob@example.org/emailAddress=bob@example.org
        Subject Public Key Info:
            Public Key Algorithm: rsaEncryption
                Public-Key: (2048 bit)
                Modulus:
                    00:b8:9c:ca:a2:a7:b4:37:c5:f4:49:0f:92:4a:44:
                    89:f3:2a:7e:c8:4c:01:45:ed:90:7a:71:7f:ef:74:
                    95:e8:71:99:7e:4f:e0:13:cb:20:d2:a8:6a:7a:7a:
                    aa:72:85:e2:05:12:2d:39:60:28:d8:8f:9e:e7:99:
                    63:6c:ee:55:98:61:4b:fd:21:cb:5c:18:d6:1e:fd:
                    8e:cf:dd:f0:9c:37:e9:58:c3:c6:f7:40:7b:5c:53:
                    fc:28:47:a8:4f:37:bf:70:1e:b2:2b:78:ce:3c:49:
                    db:52:ba:ea:b1:82:3a:ea:cf:75:95:20:b7:9e:63:
                    0e:31:51:96:12:35:b2:76:5c:34:2b:97:2b:f6:0d:
                    ab:5e:f0:9c:72:3a:80:50:a9:51:c4:9b:73:b6:88:
                    09:d0:8d:e8:e5:d5:d2:f8:c5:c3:03:43:a0:7c:6a:
                    fe:83:84:97:ee:b9:2a:06:50:55:da:52:f3:99:6b:
                    54:07:18:09:d2:90:a5:50:f1:89:55:c4:c3:36:6f:
                    55:c7:b8:97:ef:de:95:f3:19:b4:f8:e1:23:7c:a4:
                    3d:72:aa:48:18:ca:64:7d:8e:f4:c1:05:a5:0c:00:
                    f2:9a:55:9a:ce:aa:44:f4:e3:01:dc:5b:f5:7b:64:
                    2e:38:bd:a3:1e:11:22:71:19:2c:59:3c:a9:af:5c:
                    9e:e5
                Exponent: 65537 (0x10001)
        X509v3 extensions:
            X509v3 Extended Key Usage: 
                TLS Web Client Authentication
            X509v3 CRL Distribution Points: 
                Full Name:
                  URI:http://www.example.com/example_ca.crl
            X509v3 Subject Key Identifier: 
                F6:C8:1E:6E:BB:AE:F7:72:2D:72:CC:8A:E9:E9:1F:F1:0D:91:4F:3D
            X509v3 Authority Key Identifier: 
                AA:BB:B8:28:79:FC:59:C9:A6:82:8B:36:AF:1A:67:7F:1F:08:1A:FC
    Signature Algorithm: sha256WithRSAEncryption
    Signature Value:
        26:93:c0:ad:2b:52:c3:72:62:77:70:4b:e2:4a:91:6c:6c:21:
        15:4e:b4:ef:90:27:5f:64:a7:33:0a:28:db:d7:e6:42:ba:75:
        5c:27:81:4e:97:36:91:6f:64:7e:b7:2c:b8:13:ee:b6:d5:48:
        85:e7:95:5a:ed:ab:c0:af:ad:6c:8d:79:73:5f:ff:31:68:0a:
        05:d3:27:a3:86:e8:c0:7a:1c:e8:96:80:01:dc:98:aa:b0:61:
        be:29:00:e6:0c:48:6d:85:c2:17:9e:bd:50:87:cc:c8:61:4e:
        cc:c0:80:c1:8d:f0:eb:86:ab:af:c1:f9:a4:4b:de:3a:6c:cd:
        35:e1:bf:4c:54:a1:65:5a:97:43:89:d1:81:cc:fc:0b:8b:a8:
        d0:ce:53:4a:eb:b7:8e:9b:35:de:e2:f5:97:d0:81:6f:2e:a5:
        c2:8a:17:5e:a9:33:6f:92:e6:18:d5:e9:05:ec:14:3b:c4:58:
        0d:1f:d5:43:2c:d2:85:db:6e:f1:1a:64:d1:dc:9c:01:80:f4:
        cc:c0:dc:fe:ee:96:09:9d:f2:b4:df:cd:28:ee:68:75:81:8b:
        f3:a8:40:64:50:b0:85:a5:85:35:4f:b6:1f:66:59:b6:46:9b:
        20:8a:58:76:22:8f:3c:77:12:38:91:51:09:12:62:a1:7b:7c:
        ef:72:db:b0
-----BEGIN CERTIFICATE-----
MIIEDzCCAvegAwIBAgIBAjANBgkqhkiG9w0BAQsFADCBkzELMAkGA1UEBhMCRlIx
DzANBgNVBAgMBlJhZGl1czESMBAGA1UEBwwJU29tZXdoZXJlMRUwEwYDVQQKDAxF
eGFtcGxlIEluYy4xIDAeBgkqhkiG9w0BCQEWEWFkbWluQGV4YW1wbGUub3JnMSYw
JAYDVQQDDB1FeGFtcGxlIENlcnRpZmljYXRlIEF1dGhvcml0eTAeFw0yMzEyMjAx
NDM4NDhaFw0yNDAyMTgxNDM4NDhaMG8xCzAJBgNVBAYTAkZSMQ8wDQYDVQQIDAZS
YWRpdXMxFTATBgNVBAoMDEV4YW1wbGUgSW5jLjEYMBYGA1UEAwwPYm9iQGV4YW1w
bGUub3JnMR4wHAYJKoZIhvcNAQkBFg9ib2JAZXhhbXBsZS5vcmcwggEiMA0GCSqG
SIb3DQEBAQUAA4IBDwAwggEKAoIBAQC4nMqip7Q3xfRJD5JKRInzKn7ITAFF7ZB6
cX/vdJXocZl+T+ATyyDSqGp6eqpyheIFEi05YCjYj57nmWNs7lWYYUv9IctcGNYe
/Y7P3fCcN+lYw8b3QHtcU/woR6hPN79wHrIreM48SdtSuuqxgjrqz3WVILeeYw4x
UZYSNbJ2XDQrlyv2Date8JxyOoBQqVHEm3O2iAnQjejl1dL4xcMDQ6B8av6DhJfu
uSoGUFXaUvOZa1QHGAnSkKVQ8YlVxMM2b1XHuJfv3pXzGbT44SN8pD1yqkgYymR9
jvTBBaUMAPKaVZrOqkT04wHcW/V7ZC44vaMeESJxGSxZPKmvXJ7lAgMBAAGjgZAw
gY0wEwYDVR0lBAwwCgYIKwYBBQUHAwIwNgYDVR0fBC8wLTAroCmgJ4YlaHR0cDov
L3d3dy5leGFtcGxlLmNvbS9leGFtcGxlX2NhLmNybDAdBgNVHQ4EFgQU9sgebruu
93ItcsyK6ekf8Q2RTz0wHwYDVR0jBBgwFoAUqru4KHn8Wcmmgos2rxpnfx8IGvww
DQYJKoZIhvcNAQELBQADggEBACaTwK0rUsNyYndwS+JKkWxsIRVOtO+QJ19kpzMK
KNvX5kK6dVwngU6XNpFvZH63LLgT7rbVSIXnlVrtq8CvrWyNeXNf/zFoCgXTJ6OG
6MB6HOiWgAHcmKqwYb4pAOYMSG2FwheevVCHzMhhTszAgMGN8OuGq6/B+aRL3jps
zTXhv0xUoWVal0OJ0YHM/AuLqNDOU0rrt46bNd7i9ZfQgW8upcKKF16pM2+S5hjV
6QXsFDvEWA0f1UMs0oXbbvEaZNHcnAGA9MzA3P7ulgmd8rTfzSjuaHWBi/OoQGRQ
sIWlhTVPth9mWbZGmyCKWHYijzx3EjiRUQkSYqF7fO9y27A=
-----END CERTIFICATE-----
