Certificate:
    Data:
        Version: 3 (0x2)
        Serial Number: 2 (0x2)
        Signature Algorithm: sha256WithRSAEncryption
        Issuer: C=FR, ST=Radius, L=Somewhere, O=Example Inc./emailAddress=admin@example.org, CN=Example Certificate Authority
        Validity
            Not Before: Dec 20 14:37:24 2023 GMT
            Not After : Feb 18 14:37:24 2024 GMT
        Subject: C=FR, ST=Radius, O=Example Inc., CN=bob@example.org/emailAddress=bob@example.org
        Subject Public Key Info:
            Public Key Algorithm: rsaEncryption
                Public-Key: (2048 bit)
                Modulus:
                    00:c3:f2:b2:61:f8:b4:68:54:4b:3e:be:f2:6c:c2:
                    a6:e4:b4:85:1b:aa:88:d6:66:67:b9:c4:73:27:96:
                    65:50:b3:c4:47:b1:f2:d6:6e:78:54:d9:58:c9:11:
                    ef:88:ac:19:e7:e7:b0:36:5f:65:31:c0:a6:c1:c4:
                    9f:b5:84:79:6c:8b:69:70:ac:2d:8a:96:83:40:4b:
                    61:21:64:20:85:a1:49:62:36:37:99:a6:94:fe:3e:
                    57:4d:c4:79:68:cf:97:37:02:7d:4d:61:90:76:86:
                    92:12:eb:29:61:d9:af:ec:c9:68:7b:38:2d:a4:ed:
                    75:cb:4a:df:b7:b0:b6:21:cd:21:46:a9:71:7a:ed:
                    8a:66:2d:5f:4d:dd:94:05:2a:6e:e5:49:65:a4:17:
                    a5:76:4d:e6:f2:f0:08:dc:ab:53:ca:9e:b7:b4:93:
                    49:5b:5a:71:aa:ec:2c:0a:99:61:41:50:fd:e9:61:
                    28:46:78:dc:b5:ca:75:93:45:57:cc:ae:16:9e:7b:
                    19:dd:b9:c4:d6:54:11:dd:72:1d:13:d4:36:56:87:
                    2e:a1:25:15:81:12:77:41:00:78:e6:f5:51:e4:6f:
                    44:57:16:7f:68:14:a4:37:53:01:c9:96:c6:e7:e1:
                    7e:e4:92:07:c9:4e:02:de:21:a6:c6:12:bd:44:71:
                    76:39
                Exponent: 65537 (0x10001)
        X509v3 extensions:
            X509v3 Extended Key Usage: 
                TLS Web Client Authentication
            X509v3 CRL Distribution Points: 
                Full Name:
                  URI:http://www.example.com/example_ca.crl
            X509v3 Subject Key Identifier: 
                D9:80:4E:BD:E7:49:33:16:82:FC:DF:61:E9:EC:4E:19:9D:A8:E2:A9
            X509v3 Authority Key Identifier: 
                AA:3C:70:B2:E0:5B:A4:E8:FC:EC:A9:18:7F:74:AF:B4:F7:5A:E3:5F
    Signature Algorithm: sha256WithRSAEncryption
    Signature Value:
        95:24:44:4c:75:59:c4:96:6a:0b:4e:b5:a1:4c:ff:3e:3f:8d:
        18:bc:66:11:27:5a:41:cd:be:fc:0c:cd:2d:3d:ab:d5:fb:2f:
        83:45:34:9d:5e:17:ba:f3:fc:c1:71:d8:2e:23:6b:95:dc:51:
        70:8c:0f:d0:71:59:d6:9d:d4:55:69:45:9b:62:81:18:b6:93:
        33:6b:05:28:09:85:50:b0:50:2b:4b:20:91:41:ba:63:df:08:
        b1:15:de:dd:1b:b7:df:bf:e2:34:fd:8f:3f:78:3b:21:c3:9e:
        83:48:d8:79:a6:d8:8d:55:19:ad:f5:f9:23:70:1f:bc:69:6d:
        27:a5:45:57:e3:02:11:01:83:fe:c1:04:7a:6a:ff:00:36:37:
        49:ad:95:c2:d4:b9:a4:42:69:75:46:12:8b:89:f1:9a:a6:bb:
        d2:45:d8:18:ee:57:71:3b:5e:2e:19:2e:14:00:ed:ab:14:bf:
        f6:16:cc:34:b9:82:ae:e1:0a:8c:6e:56:81:5e:34:3c:5d:e8:
        d0:af:85:76:11:40:af:05:51:7f:4e:29:cb:7a:1c:60:f6:f7:
        7b:28:97:0c:4f:4a:12:07:19:84:ab:0f:1e:6b:89:7f:e3:bf:
        89:f9:32:41:dd:7e:06:c5:2f:16:53:ae:92:c6:1f:37:fa:6a:
        7e:28:a1:31
-----BEGIN CERTIFICATE-----
MIIEDzCCAvegAwIBAgIBAjANBgkqhkiG9w0BAQsFADCBkzELMAkGA1UEBhMCRlIx
DzANBgNVBAgMBlJhZGl1czESMBAGA1UEBwwJU29tZXdoZXJlMRUwEwYDVQQKDAxF
eGFtcGxlIEluYy4xIDAeBgkqhkiG9w0BCQEWEWFkbWluQGV4YW1wbGUub3JnMSYw
JAYDVQQDDB1FeGFtcGxlIENlcnRpZmljYXRlIEF1dGhvcml0eTAeFw0yMzEyMjAx
NDM3MjRaFw0yNDAyMTgxNDM3MjRaMG8xCzAJBgNVBAYTAkZSMQ8wDQYDVQQIDAZS
YWRpdXMxFTATBgNVBAoMDEV4YW1wbGUgSW5jLjEYMBYGA1UEAwwPYm9iQGV4YW1w
bGUub3JnMR4wHAYJKoZIhvcNAQkBFg9ib2JAZXhhbXBsZS5vcmcwggEiMA0GCSqG
SIb3DQEBAQUAA4IBDwAwggEKAoIBAQDD8rJh+LRoVEs+vvJswqbktIUbqojWZme5
xHMnlmVQs8RHsfLWbnhU2VjJEe+IrBnn57A2X2UxwKbBxJ+1hHlsi2lwrC2KloNA
S2EhZCCFoUliNjeZppT+PldNxHloz5c3An1NYZB2hpIS6ylh2a/syWh7OC2k7XXL
St+3sLYhzSFGqXF67YpmLV9N3ZQFKm7lSWWkF6V2Teby8Ajcq1PKnre0k0lbWnGq
7CwKmWFBUP3pYShGeNy1ynWTRVfMrhaeexnducTWVBHdch0T1DZWhy6hJRWBEndB
AHjm9VHkb0RXFn9oFKQ3UwHJlsbn4X7kkgfJTgLeIabGEr1EcXY5AgMBAAGjgZAw
gY0wEwYDVR0lBAwwCgYIKwYBBQUHAwIwNgYDVR0fBC8wLTAroCmgJ4YlaHR0cDov
L3d3dy5leGFtcGxlLmNvbS9leGFtcGxlX2NhLmNybDAdBgNVHQ4EFgQU2YBOvedJ
MxaC/N9h6exOGZ2o4qkwHwYDVR0jBBgwFoAUqjxwsuBbpOj87KkYf3SvtPda418w
DQYJKoZIhvcNAQELBQADggEBAJUkREx1WcSWagtOtaFM/z4/jRi8ZhEnWkHNvvwM
zS09q9X7L4NFNJ1eF7rz/MFx2C4ja5XcUXCMD9BxWdad1FVpRZtigRi2kzNrBSgJ
hVCwUCtLIJFBumPfCLEV3t0bt9+/4jT9jz94OyHDnoNI2Hmm2I1VGa31+SNwH7xp
bSelRVfjAhEBg/7BBHpq/wA2N0mtlcLUuaRCaXVGEouJ8Zqmu9JF2BjuV3E7Xi4Z
LhQA7asUv/YWzDS5gq7hCoxuVoFeNDxd6NCvhXYRQK8FUX9OKct6HGD293solwxP
ShIHGYSrDx5riX/jv4n5MkHdfgbFLxZTrpLGHzf6an4ooTE=
-----END CERTIFICATE-----
