Certificate:
    Data:
        Version: 3 (0x2)
        Serial Number: 2 (0x2)
        Signature Algorithm: sha256WithRSAEncryption
        Issuer: C=FR, ST=Radius, L=Somewhere, O=Example Inc./emailAddress=admin@example.org, CN=Example Certificate Authority
        Validity
            Not Before: Feb 22 15:36:19 2024 GMT
            Not After : Apr 22 15:36:19 2024 GMT
        Subject: C=FR, ST=Radius, O=Example Inc., CN=bob@example.org/emailAddress=bob@example.org
        Subject Public Key Info:
            Public Key Algorithm: rsaEncryption
                Public-Key: (2048 bit)
                Modulus:
                    00:b9:57:b1:96:c3:cc:d5:b7:3b:39:59:32:d2:12:
                    79:c5:94:6d:2f:54:10:e1:40:98:6d:1c:31:04:da:
                    4a:15:06:09:8f:60:20:4c:66:cb:b2:17:7c:2c:63:
                    25:72:15:a3:59:0e:b6:7c:14:d6:7f:25:12:21:29:
                    ab:52:26:1b:13:bf:b3:04:f9:79:a1:5c:54:c7:e6:
                    89:9f:e3:26:19:f0:38:95:3e:df:18:2c:ba:04:4a:
                    7a:8c:3b:d9:5e:86:56:7b:79:b9:ac:d2:67:24:a1:
                    0b:c3:28:c0:d2:bc:c3:81:b5:f9:e4:48:52:cc:fc:
                    dc:e1:a5:aa:33:60:4f:39:f0:90:67:f9:f9:0d:da:
                    dc:9d:e0:ba:f8:b6:d4:aa:df:5b:46:dc:ab:c3:28:
                    24:d9:1b:93:98:38:c3:9c:77:b8:90:26:cc:30:0f:
                    c9:63:a5:a7:f8:d8:52:cf:1f:ee:6e:79:49:31:53:
                    b5:51:88:d4:e1:ca:52:ab:b6:82:b5:14:cc:c8:7e:
                    45:43:0f:2d:9c:7e:ff:dc:1e:8e:6c:7e:d6:9e:36:
                    8a:42:13:59:4c:96:fb:7c:26:eb:fe:5c:31:55:a8:
                    04:60:22:43:03:f3:9a:3e:2a:f4:ad:09:67:1d:5f:
                    42:c7:70:76:3f:96:a9:ac:f4:1e:4a:bd:c1:c9:f7:
                    25:cb
                Exponent: 65537 (0x10001)
        X509v3 extensions:
            X509v3 Extended Key Usage: 
                TLS Web Client Authentication
            X509v3 CRL Distribution Points: 
                Full Name:
                  URI:http://www.example.com/example_ca.crl
            X509v3 Subject Key Identifier: 
                55:CC:4E:0B:E7:B4:F2:87:62:A7:F5:00:C4:CA:5A:69:51:F6:4C:E9
            X509v3 Authority Key Identifier: 
                39:77:82:63:AC:CB:17:10:93:B4:D5:B6:23:00:F5:2D:CE:11:29:7E
    Signature Algorithm: sha256WithRSAEncryption
    Signature Value:
        6c:17:30:a7:71:7e:14:1f:09:85:c7:c5:6e:82:33:cd:15:5e:
        78:a6:9d:40:ca:06:75:58:15:f4:cf:5e:42:26:46:11:f2:28:
        8f:e4:a9:27:d6:8a:fd:20:df:e1:a1:90:0d:90:b7:8c:a1:ec:
        f7:66:96:ec:90:b7:a3:0e:5c:db:9d:77:f9:ec:a5:e5:32:af:
        96:01:73:d3:9e:74:04:1a:ce:2c:90:62:76:e1:4b:39:b8:08:
        67:17:0b:d7:9f:14:0d:fa:16:93:02:6c:3e:69:59:85:60:96:
        6b:bf:74:63:39:d7:bb:10:f7:8d:4a:6c:43:ac:06:0c:21:56:
        59:b2:b0:b8:a5:9c:34:11:d8:d9:79:25:05:20:14:77:c6:14:
        02:95:bb:c8:08:fc:f1:d5:bf:b9:04:59:57:c2:f1:22:33:99:
        3e:06:20:a9:75:cf:e7:1d:84:a9:fb:e3:4d:27:00:64:29:d3:
        ed:d0:db:68:98:14:5b:9c:a8:bc:a7:ee:30:be:68:ba:03:31:
        01:94:e8:de:70:95:60:ab:76:b9:8c:23:7b:6f:cb:00:63:0e:
        2c:90:14:80:a6:27:07:03:15:e2:4d:a1:54:11:32:e9:25:94:
        be:02:13:c1:a7:67:c5:e0:5d:a8:d6:25:5e:34:ac:58:c7:39:
        65:10:ef:dd
-----BEGIN CERTIFICATE-----
MIIEDzCCAvegAwIBAgIBAjANBgkqhkiG9w0BAQsFADCBkzELMAkGA1UEBhMCRlIx
DzANBgNVBAgMBlJhZGl1czESMBAGA1UEBwwJU29tZXdoZXJlMRUwEwYDVQQKDAxF
eGFtcGxlIEluYy4xIDAeBgkqhkiG9w0BCQEWEWFkbWluQGV4YW1wbGUub3JnMSYw
JAYDVQQDDB1FeGFtcGxlIENlcnRpZmljYXRlIEF1dGhvcml0eTAeFw0yNDAyMjIx
NTM2MTlaFw0yNDA0MjIxNTM2MTlaMG8xCzAJBgNVBAYTAkZSMQ8wDQYDVQQIDAZS
YWRpdXMxFTATBgNVBAoMDEV4YW1wbGUgSW5jLjEYMBYGA1UEAwwPYm9iQGV4YW1w
bGUub3JnMR4wHAYJKoZIhvcNAQkBFg9ib2JAZXhhbXBsZS5vcmcwggEiMA0GCSqG
SIb3DQEBAQUAA4IBDwAwggEKAoIBAQC5V7GWw8zVtzs5WTLSEnnFlG0vVBDhQJht
HDEE2koVBgmPYCBMZsuyF3wsYyVyFaNZDrZ8FNZ/JRIhKatSJhsTv7ME+XmhXFTH
5omf4yYZ8DiVPt8YLLoESnqMO9lehlZ7ebms0mckoQvDKMDSvMOBtfnkSFLM/Nzh
paozYE858JBn+fkN2tyd4Lr4ttSq31tG3KvDKCTZG5OYOMOcd7iQJswwD8ljpaf4
2FLPH+5ueUkxU7VRiNThylKrtoK1FMzIfkVDDy2cfv/cHo5sftaeNopCE1lMlvt8
Juv+XDFVqARgIkMD85o+KvStCWcdX0LHcHY/lqms9B5KvcHJ9yXLAgMBAAGjgZAw
gY0wEwYDVR0lBAwwCgYIKwYBBQUHAwIwNgYDVR0fBC8wLTAroCmgJ4YlaHR0cDov
L3d3dy5leGFtcGxlLmNvbS9leGFtcGxlX2NhLmNybDAdBgNVHQ4EFgQUVcxOC+e0
8odip/UAxMpaaVH2TOkwHwYDVR0jBBgwFoAUOXeCY6zLFxCTtNW2IwD1Lc4RKX4w
DQYJKoZIhvcNAQELBQADggEBAGwXMKdxfhQfCYXHxW6CM80VXnimnUDKBnVYFfTP
XkImRhHyKI/kqSfWiv0g3+GhkA2Qt4yh7PdmluyQt6MOXNudd/nspeUyr5YBc9Oe
dAQaziyQYnbhSzm4CGcXC9efFA36FpMCbD5pWYVglmu/dGM517sQ941KbEOsBgwh
VlmysLilnDQR2Nl5JQUgFHfGFAKVu8gI/PHVv7kEWVfC8SIzmT4GIKl1z+cdhKn7
400nAGQp0+3Q22iYFFucqLyn7jC+aLoDMQGU6N5wlWCrdrmMI3tvywBjDiyQFICm
JwcDFeJNoVQRMukllL4CE8GnZ8XgXajWJV40rFjHOWUQ790=
-----END CERTIFICATE-----
