Certificate:
    Data:
        Version: 3 (0x2)
        Serial Number: 1 (0x1)
        Signature Algorithm: sha256WithRSAEncryption
        Issuer: C=FR, ST=Radius, L=Somewhere, O=Example Inc./emailAddress=admin@example.org, CN=Example Certificate Authority
        Validity
            Not Before: Dec 20 14:37:21 2023 GMT
            Not After : Feb 18 14:37:21 2024 GMT
        Subject: C=FR, ST=Radius, O=Example Inc., CN=Example Server Certificate/emailAddress=admin@example.org
        Subject Public Key Info:
            Public Key Algorithm: rsaEncryption
                Public-Key: (2048 bit)
                Modulus:
                    00:c9:1f:da:b0:db:db:dd:da:41:4d:5e:7d:bb:65:
                    31:bc:bf:91:fa:fd:74:3f:2c:e8:5b:77:d9:9a:22:
                    5f:f3:78:74:26:e5:27:69:ee:3d:b5:0b:37:97:e2:
                    8e:ea:9f:71:d3:51:3d:2b:e9:3d:05:e4:3b:66:9f:
                    3c:35:b2:0b:1a:e2:92:1d:69:1e:5b:6c:be:f3:94:
                    d9:07:82:c1:ca:7e:31:be:39:7f:aa:ba:de:5a:36:
                    4f:56:65:47:a2:94:5e:ed:3b:0c:b4:8b:85:da:4a:
                    ba:e5:35:b4:c2:bd:2e:59:15:be:73:3e:10:74:da:
                    7c:bf:a6:37:f3:56:62:c4:0c:25:67:e8:ec:a5:5a:
                    7f:8f:75:67:b7:97:c2:99:f3:df:6c:08:15:84:e1:
                    fb:c6:6a:51:e6:9e:25:53:d9:81:f0:dd:49:78:59:
                    0e:91:44:aa:2c:f9:d7:55:5d:3d:4b:92:60:18:73:
                    bb:c7:1a:75:4d:7c:51:19:37:8b:c8:19:74:18:b6:
                    54:fa:da:cd:95:d4:84:4a:8f:f9:8a:f1:4b:50:c8:
                    63:6c:2c:7d:00:fc:4f:3f:c2:26:3b:5a:81:8e:62:
                    dc:b4:82:e9:21:87:b9:da:b3:31:5c:60:d4:7d:6a:
                    bc:c9:14:a0:50:c9:66:08:41:8d:b9:8d:4b:02:83:
                    09:21
                Exponent: 65537 (0x10001)
        X509v3 extensions:
            X509v3 Extended Key Usage: 
                TLS Web Server Authentication
            X509v3 CRL Distribution Points: 
                Full Name:
                  URI:http://www.example.com/example_ca.crl
            X509v3 Subject Key Identifier: 
                EB:75:0F:5F:77:EA:41:7F:10:BE:E6:7F:2D:88:8A:20:C5:D7:5C:16
            X509v3 Authority Key Identifier: 
                AA:3C:70:B2:E0:5B:A4:E8:FC:EC:A9:18:7F:74:AF:B4:F7:5A:E3:5F
    Signature Algorithm: sha256WithRSAEncryption
    Signature Value:
        85:7a:a8:53:18:9e:0b:6c:d1:df:8c:02:2e:25:bb:c6:a3:3c:
        84:02:5d:a5:40:4a:a0:56:f4:53:d5:8f:e5:3d:2b:36:74:8b:
        a8:2d:93:9a:63:66:21:d7:ee:cb:a2:e7:23:ba:46:2d:83:3b:
        cd:0b:ec:18:ba:bc:56:a5:37:82:e9:7f:d2:ae:b1:37:1d:ec:
        2e:21:6b:ef:dc:ea:e7:fd:ca:e1:36:01:3e:74:b7:de:04:bb:
        79:b5:0f:77:fd:83:88:fa:76:e8:df:4b:83:18:88:cc:4f:f2:
        f1:79:a5:b3:5f:b3:65:59:5e:de:c6:34:be:72:46:6f:49:6c:
        8c:ad:44:8e:05:78:93:22:2e:9d:9b:96:fa:51:c2:d8:4d:f3:
        87:da:ce:2b:8d:d5:6e:85:ea:1e:27:ed:30:25:47:bc:22:a3:
        5b:03:49:ae:70:75:50:2f:1b:e4:a9:33:46:7c:7e:c4:1b:12:
        f9:69:f6:5c:af:80:e8:2b:77:b0:4c:1d:46:75:62:10:be:26:
        84:f0:27:b3:47:de:bb:97:d3:bc:a3:95:77:56:60:fe:21:68:
        96:91:87:b5:d4:6b:43:28:4b:b1:30:75:78:03:bd:fe:08:2c:
        bf:44:b3:73:53:c4:f8:53:13:1b:ac:e8:ca:9c:30:29:0a:88:
        b1:bf:0a:68
-----BEGIN CERTIFICATE-----
MIIEHDCCAwSgAwIBAgIBATANBgkqhkiG9w0BAQsFADCBkzELMAkGA1UEBhMCRlIx
DzANBgNVBAgMBlJhZGl1czESMBAGA1UEBwwJU29tZXdoZXJlMRUwEwYDVQQKDAxF
eGFtcGxlIEluYy4xIDAeBgkqhkiG9w0BCQEWEWFkbWluQGV4YW1wbGUub3JnMSYw
JAYDVQQDDB1FeGFtcGxlIENlcnRpZmljYXRlIEF1dGhvcml0eTAeFw0yMzEyMjAx
NDM3MjFaFw0yNDAyMTgxNDM3MjFaMHwxCzAJBgNVBAYTAkZSMQ8wDQYDVQQIDAZS
YWRpdXMxFTATBgNVBAoMDEV4YW1wbGUgSW5jLjEjMCEGA1UEAwwaRXhhbXBsZSBT
ZXJ2ZXIgQ2VydGlmaWNhdGUxIDAeBgkqhkiG9w0BCQEWEWFkbWluQGV4YW1wbGUu
b3JnMIIBIjANBgkqhkiG9w0BAQEFAAOCAQ8AMIIBCgKCAQEAyR/asNvb3dpBTV59
u2UxvL+R+v10PyzoW3fZmiJf83h0JuUnae49tQs3l+KO6p9x01E9K+k9BeQ7Zp88
NbILGuKSHWkeW2y+85TZB4LByn4xvjl/qrreWjZPVmVHopRe7TsMtIuF2kq65TW0
wr0uWRW+cz4QdNp8v6Y381ZixAwlZ+jspVp/j3Vnt5fCmfPfbAgVhOH7xmpR5p4l
U9mB8N1JeFkOkUSqLPnXVV09S5JgGHO7xxp1TXxRGTeLyBl0GLZU+trNldSESo/5
ivFLUMhjbCx9APxPP8ImO1qBjmLctILpIYe52rMxXGDUfWq8yRSgUMlmCEGNuY1L
AoMJIQIDAQABo4GQMIGNMBMGA1UdJQQMMAoGCCsGAQUFBwMBMDYGA1UdHwQvMC0w
K6ApoCeGJWh0dHA6Ly93d3cuZXhhbXBsZS5jb20vZXhhbXBsZV9jYS5jcmwwHQYD
VR0OBBYEFOt1D1936kF/EL7mfy2IiiDF11wWMB8GA1UdIwQYMBaAFKo8cLLgW6To
/OypGH90r7T3WuNfMA0GCSqGSIb3DQEBCwUAA4IBAQCFeqhTGJ4LbNHfjAIuJbvG
ozyEAl2lQEqgVvRT1Y/lPSs2dIuoLZOaY2Yh1+7LoucjukYtgzvNC+wYurxWpTeC
6X/SrrE3HewuIWvv3Orn/crhNgE+dLfeBLt5tQ93/YOI+nbo30uDGIjMT/LxeaWz
X7NlWV7exjS+ckZvSWyMrUSOBXiTIi6dm5b6UcLYTfOH2s4rjdVuheoeJ+0wJUe8
IqNbA0mucHVQLxvkqTNGfH7EGxL5afZcr4DoK3ewTB1GdWIQviaE8CezR967l9O8
o5V3VmD+IWiWkYe11GtDKEuxMHV4A73+CCy/RLNzU8T4UxMbrOjKnDApCoixvwpo
-----END CERTIFICATE-----
