Certificate:
    Data:
        Version: 3 (0x2)
        Serial Number: 1 (0x1)
        Signature Algorithm: sha256WithRSAEncryption
        Issuer: C=FR, ST=Radius, L=Somewhere, O=Example Inc./emailAddress=admin@example.org, CN=Example Certificate Authority
        Validity
            Not Before: Feb 22 15:36:16 2024 GMT
            Not After : Apr 22 15:36:16 2024 GMT
        Subject: C=FR, ST=Radius, O=Example Inc., CN=Example Server Certificate/emailAddress=admin@example.org
        Subject Public Key Info:
            Public Key Algorithm: rsaEncryption
                Public-Key: (2048 bit)
                Modulus:
                    00:d0:19:da:97:85:fd:4a:87:52:6b:0f:e7:2c:54:
                    c8:e4:35:c7:0e:e5:3b:1e:47:50:af:36:72:54:b2:
                    e8:03:44:4d:54:03:01:a8:b9:97:b4:dd:16:1c:da:
                    f0:a6:ea:dd:c2:4b:4c:e4:c3:04:e7:d9:ac:f3:cf:
                    ae:16:3f:db:8b:70:86:15:3d:6d:f5:b7:e0:00:39:
                    26:dd:0e:20:0d:58:bb:22:b6:08:83:8a:72:55:41:
                    09:c6:85:bd:6b:dc:53:eb:91:ac:f4:e9:bf:5f:c8:
                    8a:52:b3:df:ad:18:82:bd:cf:ce:a7:17:e9:f3:8d:
                    1b:99:f0:5f:67:13:0b:6c:df:cb:a8:17:87:68:ed:
                    2a:93:73:61:aa:f1:d4:4b:37:20:27:64:b5:76:f7:
                    8d:d3:5e:79:79:1a:0f:1d:b7:cc:1c:d6:75:34:2d:
                    5d:25:d8:af:33:80:25:52:4f:6a:e1:88:30:e2:42:
                    b7:92:16:1b:eb:9d:57:8f:b7:97:f9:bf:5f:50:c6:
                    f2:8e:1a:f3:b6:54:bf:13:30:0e:fc:40:9b:06:fc:
                    d2:48:89:21:2a:dc:d6:67:28:43:3e:fa:34:fd:d2:
                    9f:0a:fe:cd:60:ba:68:24:22:d0:91:d3:a5:cf:37:
                    86:01:3d:79:a2:86:6d:8a:7c:4a:ec:47:8b:5b:55:
                    50:59
                Exponent: 65537 (0x10001)
        X509v3 extensions:
            X509v3 Extended Key Usage: 
                TLS Web Server Authentication
            X509v3 CRL Distribution Points: 
                Full Name:
                  URI:http://www.example.com/example_ca.crl
            X509v3 Subject Key Identifier: 
                1A:67:ED:F3:84:C9:F9:AE:FE:23:97:EF:84:23:39:5E:6F:92:3E:77
            X509v3 Authority Key Identifier: 
                39:77:82:63:AC:CB:17:10:93:B4:D5:B6:23:00:F5:2D:CE:11:29:7E
    Signature Algorithm: sha256WithRSAEncryption
    Signature Value:
        19:77:11:e8:59:fc:26:8c:41:6d:c1:4b:c1:5f:e9:05:9b:ef:
        18:9b:d5:4d:fb:8e:15:ba:32:fa:64:f4:f2:eb:ec:7b:07:6e:
        56:d6:3f:a1:1f:04:07:be:03:90:67:9b:d3:56:b6:e0:6c:75:
        f4:f1:48:4f:82:54:d5:3d:5e:46:bc:e6:da:b4:0e:ec:4e:46:
        fc:ce:a6:ee:ad:5e:6d:17:2d:dc:74:c0:07:5c:2d:30:56:e4:
        93:27:ea:2c:4e:ae:c9:b7:33:38:d9:c6:dc:f3:b2:4e:5b:91:
        4c:02:5a:2b:8d:a9:80:8f:43:06:e9:06:fa:63:37:00:fc:97:
        6d:34:22:2c:36:2e:00:4f:94:bc:2d:87:fb:f6:11:b2:93:02:
        8c:74:50:44:72:7e:8c:60:ff:63:95:8e:5e:20:f0:cd:b9:27:
        2d:93:5b:99:10:c4:55:6a:98:b6:c5:3c:4c:ac:6a:e5:1d:1c:
        c5:4f:ff:e4:51:d0:19:4c:fa:67:5c:d9:8a:2e:90:c4:64:f7:
        46:60:9a:59:f6:09:d2:8f:a9:3d:36:0e:9d:3e:e7:af:bc:a2:
        92:71:d8:e9:97:70:96:bc:9b:43:a4:b4:e2:5a:11:46:4b:d8:
        85:d8:d3:81:31:22:ec:ab:f0:04:01:fe:80:d9:f2:65:e7:04:
        38:2d:26:cb
-----BEGIN CERTIFICATE-----
MIIEHDCCAwSgAwIBAgIBATANBgkqhkiG9w0BAQsFADCBkzELMAkGA1UEBhMCRlIx
DzANBgNVBAgMBlJhZGl1czESMBAGA1UEBwwJU29tZXdoZXJlMRUwEwYDVQQKDAxF
eGFtcGxlIEluYy4xIDAeBgkqhkiG9w0BCQEWEWFkbWluQGV4YW1wbGUub3JnMSYw
JAYDVQQDDB1FeGFtcGxlIENlcnRpZmljYXRlIEF1dGhvcml0eTAeFw0yNDAyMjIx
NTM2MTZaFw0yNDA0MjIxNTM2MTZaMHwxCzAJBgNVBAYTAkZSMQ8wDQYDVQQIDAZS
YWRpdXMxFTATBgNVBAoMDEV4YW1wbGUgSW5jLjEjMCEGA1UEAwwaRXhhbXBsZSBT
ZXJ2ZXIgQ2VydGlmaWNhdGUxIDAeBgkqhkiG9w0BCQEWEWFkbWluQGV4YW1wbGUu
b3JnMIIBIjANBgkqhkiG9w0BAQEFAAOCAQ8AMIIBCgKCAQEA0Bnal4X9SodSaw/n
LFTI5DXHDuU7HkdQrzZyVLLoA0RNVAMBqLmXtN0WHNrwpurdwktM5MME59ms88+u
Fj/bi3CGFT1t9bfgADkm3Q4gDVi7IrYIg4pyVUEJxoW9a9xT65Gs9Om/X8iKUrPf
rRiCvc/Opxfp840bmfBfZxMLbN/LqBeHaO0qk3NhqvHUSzcgJ2S1dveN0155eRoP
HbfMHNZ1NC1dJdivM4AlUk9q4Ygw4kK3khYb651Xj7eX+b9fUMbyjhrztlS/EzAO
/ECbBvzSSIkhKtzWZyhDPvo0/dKfCv7NYLpoJCLQkdOlzzeGAT15ooZtinxK7EeL
W1VQWQIDAQABo4GQMIGNMBMGA1UdJQQMMAoGCCsGAQUFBwMBMDYGA1UdHwQvMC0w
K6ApoCeGJWh0dHA6Ly93d3cuZXhhbXBsZS5jb20vZXhhbXBsZV9jYS5jcmwwHQYD
VR0OBBYEFBpn7fOEyfmu/iOX74QjOV5vkj53MB8GA1UdIwQYMBaAFDl3gmOsyxcQ
k7TVtiMA9S3OESl+MA0GCSqGSIb3DQEBCwUAA4IBAQAZdxHoWfwmjEFtwUvBX+kF
m+8Ym9VN+44VujL6ZPTy6+x7B25W1j+hHwQHvgOQZ5vTVrbgbHX08UhPglTVPV5G
vObatA7sTkb8zqburV5tFy3cdMAHXC0wVuSTJ+osTq7JtzM42cbc87JOW5FMAlor
jamAj0MG6Qb6YzcA/JdtNCIsNi4AT5S8LYf79hGykwKMdFBEcn6MYP9jlY5eIPDN
uSctk1uZEMRVapi2xTxMrGrlHRzFT//kUdAZTPpnXNmKLpDEZPdGYJpZ9gnSj6k9
Ng6dPuevvKKScdjpl3CWvJtDpLTiWhFGS9iF2NOBMSLsq/AEAf6A2fJl5wQ4LSbL
-----END CERTIFICATE-----
