Certificate:
    Data:
        Version: 3 (0x2)
        Serial Number: 1 (0x1)
        Signature Algorithm: sha256WithRSAEncryption
        Issuer: C=GL, ST=New World, L=Raftel, O=Straw Hat Networking/emailAddress=ca@strawhat.com, CN=ca.strawhat.com
        Validity
            Not Before: Dec  6 15:02:30 2023 GMT
            Not After : Feb  4 15:02:30 2024 GMT
        Subject: C=GL, ST=New World, O=Straw Hat Networking, CN=radius.strawhat.com/emailAddress=radius@strawhat.com
        Subject Public Key Info:
            Public Key Algorithm: rsaEncryption
                Public-Key: (2048 bit)
                Modulus:
                    00:bd:6e:ee:c4:1b:68:be:dd:b9:1c:fd:63:f2:4e:
                    b6:bc:c6:fc:48:b6:a3:14:a0:f2:e7:68:35:e7:d6:
                    dd:56:40:be:37:11:51:b8:56:36:e3:67:31:5c:29:
                    d0:0f:d5:05:b2:f3:60:76:ab:f1:c5:7d:ce:b9:66:
                    f0:87:fa:f9:14:27:b4:26:65:ff:9d:b5:21:d9:19:
                    25:25:58:bd:97:91:1d:39:ba:da:7e:0c:ea:d7:5c:
                    27:5e:bc:41:8d:d0:48:ba:cb:6c:51:86:52:78:b9:
                    a4:5b:aa:d9:e4:a4:5d:8c:4d:9c:ff:6a:30:58:7e:
                    b4:4e:cf:be:25:d5:53:5b:fc:6b:70:b9:2a:1b:19:
                    ff:d3:06:4d:eb:a5:5c:b3:e9:35:97:1d:4d:03:fc:
                    bc:da:24:86:54:13:f3:7f:d3:ab:85:32:62:26:c0:
                    87:5d:7d:22:2a:93:a4:7c:02:84:85:b6:a3:ec:e1:
                    1d:41:0e:5f:5c:92:88:c1:dd:68:29:96:5b:d6:18:
                    fd:47:7f:61:8f:3d:3a:48:c5:fd:e0:5c:fd:72:0e:
                    92:40:74:2e:97:9a:e4:a2:c5:8a:6c:97:47:36:fc:
                    ea:19:7d:08:eb:01:4d:45:cd:00:25:26:6b:f4:3b:
                    62:cf:27:24:29:92:8b:dd:21:00:cd:38:31:de:84:
                    d9:b5
                Exponent: 65537 (0x10001)
        X509v3 extensions:
            X509v3 Extended Key Usage: 
                TLS Web Server Authentication
            X509v3 CRL Distribution Points: 
                Full Name:
                  URI:http://www.example.com/example_ca.crl
            X509v3 Subject Key Identifier: 
                06:6B:F8:35:20:DC:55:48:D9:46:DA:B3:39:2A:B5:85:BE:5B:67:4B
            X509v3 Authority Key Identifier: 
                E5:84:F6:12:87:75:09:FE:75:44:F4:FD:BA:52:0C:18:01:24:EE:E9
    Signature Algorithm: sha256WithRSAEncryption
    Signature Value:
        70:b7:9e:5e:d8:22:b7:0c:ee:a9:70:dd:ca:98:5a:e7:b5:14:
        a2:85:07:56:6d:5b:72:9b:dc:ac:1a:b9:ec:2f:6c:e7:30:08:
        2f:97:22:bc:da:06:11:7d:1c:cf:37:05:76:b7:48:52:e5:67:
        1d:63:0d:4d:a5:43:8d:9a:f3:45:68:2d:b2:3f:0e:4c:e5:66:
        7a:8e:fc:74:6b:cc:44:22:94:ae:46:6a:a6:0c:35:a3:c2:72:
        fe:c9:49:6f:a9:c6:2f:e7:c8:bd:59:f5:84:be:e1:8c:38:30:
        f8:65:5b:e6:3f:f6:c2:fb:2b:eb:75:54:e9:02:bf:9c:a1:14:
        e3:e7:e7:77:98:7a:d6:ec:c4:8c:79:26:ba:04:0c:6c:a5:9c:
        b5:51:28:f3:87:5f:5a:94:dd:85:7d:4c:91:d0:45:42:0c:f7:
        6f:a8:46:39:da:66:12:15:9a:56:51:90:e1:31:ad:8d:f4:c6:
        96:f6:37:28:1f:4c:a5:b7:be:0e:4d:ec:36:33:fc:1d:63:40:
        33:69:be:a5:9e:f7:2f:ae:df:38:51:d2:19:9d:6b:be:8d:37:
        ca:e8:e1:f6:1e:de:41:aa:ba:4c:92:f5:c7:54:87:43:32:00:
        86:d8:1e:23:d1:07:c9:a8:84:c4:8d:4b:c6:ea:04:f4:f8:13:
        f3:11:e4:1c
-----BEGIN CERTIFICATE-----
MIIEGzCCAwOgAwIBAgIBATANBgkqhkiG9w0BAQsFADCBizELMAkGA1UEBhMCR0wx
EjAQBgNVBAgMCU5ldyBXb3JsZDEPMA0GA1UEBwwGUmFmdGVsMR0wGwYDVQQKDBRT
dHJhdyBIYXQgTmV0d29ya2luZzEeMBwGCSqGSIb3DQEJARYPY2FAc3RyYXdoYXQu
Y29tMRgwFgYDVQQDDA9jYS5zdHJhd2hhdC5jb20wHhcNMjMxMjA2MTUwMjMwWhcN
MjQwMjA0MTUwMjMwWjCBgjELMAkGA1UEBhMCR0wxEjAQBgNVBAgMCU5ldyBXb3Js
ZDEdMBsGA1UECgwUU3RyYXcgSGF0IE5ldHdvcmtpbmcxHDAaBgNVBAMME3JhZGl1
cy5zdHJhd2hhdC5jb20xIjAgBgkqhkiG9w0BCQEWE3JhZGl1c0BzdHJhd2hhdC5j
b20wggEiMA0GCSqGSIb3DQEBAQUAA4IBDwAwggEKAoIBAQC9bu7EG2i+3bkc/WPy
Tra8xvxItqMUoPLnaDXn1t1WQL43EVG4VjbjZzFcKdAP1QWy82B2q/HFfc65ZvCH
+vkUJ7QmZf+dtSHZGSUlWL2XkR05utp+DOrXXCdevEGN0Ei6y2xRhlJ4uaRbqtnk
pF2MTZz/ajBYfrROz74l1VNb/GtwuSobGf/TBk3rpVyz6TWXHU0D/LzaJIZUE/N/
06uFMmImwIddfSIqk6R8AoSFtqPs4R1BDl9ckojB3WgpllvWGP1Hf2GPPTpIxf3g
XP1yDpJAdC6XmuSixYpsl0c2/OoZfQjrAU1FzQAlJmv0O2LPJyQpkovdIQDNODHe
hNm1AgMBAAGjgZAwgY0wEwYDVR0lBAwwCgYIKwYBBQUHAwEwNgYDVR0fBC8wLTAr
oCmgJ4YlaHR0cDovL3d3dy5leGFtcGxlLmNvbS9leGFtcGxlX2NhLmNybDAdBgNV
HQ4EFgQUBmv4NSDcVUjZRtqzOSq1hb5bZ0swHwYDVR0jBBgwFoAU5YT2Eod1Cf51
RPT9ulIMGAEk7ukwDQYJKoZIhvcNAQELBQADggEBAHC3nl7YIrcM7qlw3cqYWue1
FKKFB1ZtW3Kb3KwauewvbOcwCC+XIrzaBhF9HM83BXa3SFLlZx1jDU2lQ42a80Vo
LbI/DkzlZnqO/HRrzEQilK5GaqYMNaPCcv7JSW+pxi/nyL1Z9YS+4Yw4MPhlW+Y/
9sL7K+t1VOkCv5yhFOPn53eYetbsxIx5JroEDGylnLVRKPOHX1qU3YV9TJHQRUIM
92+oRjnaZhIVmlZRkOExrY30xpb2NygfTKW3vg5N7DYz/B1jQDNpvqWe9y+u3zhR
0hmda76NN8ro4fYe3kGqukyS9cdUh0MyAIbYHiPRB8mohMSNS8bqBPT4E/MR5Bw=
-----END CERTIFICATE-----
