Certificate:
    Data:
        Version: 3 (0x2)
        Serial Number: 1 (0x1)
        Signature Algorithm: sha256WithRSAEncryption
        Issuer: C=FR, ST=Radius, L=Somewhere, O=Example Inc./emailAddress=admin@example.org, CN=Example Certificate Authority
        Validity
            Not Before: Dec 20 14:29:38 2023 GMT
            Not After : Feb 18 14:29:38 2024 GMT
        Subject: C=FR, ST=Radius, O=Example Inc., CN=Example Server Certificate/emailAddress=admin@example.org
        Subject Public Key Info:
            Public Key Algorithm: rsaEncryption
                Public-Key: (2048 bit)
                Modulus:
                    00:99:a2:38:70:16:c0:79:b7:f5:87:8f:aa:0e:2b:
                    f0:44:d2:bb:36:fd:58:be:5f:f3:55:06:93:d3:20:
                    b1:a4:18:7b:00:e9:c0:0d:43:a9:ec:66:0d:1b:7f:
                    19:88:13:af:28:7b:4c:e3:f3:0d:a6:fc:bd:2a:fc:
                    15:e3:14:87:19:26:9f:e0:30:b0:fb:9f:53:2f:af:
                    91:9f:5c:3e:36:5b:ac:fa:7a:0a:39:75:74:a6:50:
                    75:54:eb:56:6f:fe:0b:92:b7:78:b8:2c:0f:80:b1:
                    6f:6a:57:b1:6c:b1:b5:11:27:5d:8c:bb:c7:48:50:
                    7d:d2:7e:f1:98:7d:98:df:6f:a8:5a:26:a5:06:5b:
                    ed:e5:2d:64:23:19:c4:9b:00:7a:22:03:d3:73:5b:
                    c9:33:16:6c:80:17:50:0b:4a:cd:c8:64:46:89:75:
                    a1:04:f3:76:7d:e9:bd:a9:1e:f2:b8:3e:ce:52:c6:
                    29:31:67:82:19:04:46:34:b5:60:b3:aa:10:57:ff:
                    80:82:a6:9f:2e:a8:2e:5b:13:7e:64:4e:6f:37:40:
                    6b:e9:74:00:a9:76:a4:24:0c:18:21:9d:40:e5:fa:
                    47:62:ae:81:94:6e:af:c1:29:90:75:3c:d2:e7:eb:
                    b0:de:8d:0e:53:ee:14:a9:23:73:1d:f7:b7:0a:9e:
                    2c:a1
                Exponent: 65537 (0x10001)
        X509v3 extensions:
            X509v3 Extended Key Usage: 
                TLS Web Server Authentication
            X509v3 CRL Distribution Points: 
                Full Name:
                  URI:http://www.example.com/example_ca.crl
            X509v3 Subject Key Identifier: 
                D3:5B:30:CE:27:55:71:A4:6D:F4:80:32:FC:7E:FA:3A:E7:3C:40:E9
            X509v3 Authority Key Identifier: 
                D3:AA:DB:E3:5C:FA:F2:36:93:7B:11:20:E7:66:B2:1F:9B:4E:3C:89
    Signature Algorithm: sha256WithRSAEncryption
    Signature Value:
        3b:26:d7:ec:28:ba:40:d2:3e:3d:00:21:f9:4e:b3:0b:b3:16:
        42:dd:5f:83:ee:88:88:ba:3e:6a:f5:3f:d7:a1:45:ea:1a:c2:
        aa:78:fd:79:8b:8d:06:b5:57:d5:9e:0f:d4:52:4e:e2:45:c1:
        48:f9:a1:78:ab:1d:b5:65:e6:45:38:8c:c5:30:ef:56:f0:26:
        86:58:27:9e:10:f7:90:94:64:0b:aa:f1:22:9a:3a:e2:f7:09:
        9a:d8:48:52:d5:7e:36:8b:e5:2d:e4:15:0f:91:45:77:5f:ce:
        b8:a1:65:6c:ad:91:38:33:b4:43:f1:7f:8e:b5:1b:18:30:cd:
        4a:f8:97:99:06:03:30:d4:20:54:54:19:47:81:27:69:6d:f2:
        da:82:cd:7b:91:25:c4:96:75:03:8f:4c:b6:0c:47:94:1d:c0:
        f5:15:3f:d8:74:48:f0:37:4d:de:09:48:80:cf:bc:94:6d:6b:
        3d:ea:82:12:d6:13:07:b3:98:63:5f:56:a4:a1:48:44:9d:31:
        f5:d1:53:c0:ec:3c:ff:4a:55:8f:63:ab:df:c2:85:11:53:ca:
        51:19:1a:f3:e0:0f:81:ec:ad:d7:bd:fb:92:10:6b:8f:86:a5:
        1b:ad:2f:a6:80:f1:93:19:c1:ee:5c:a8:83:5e:24:48:42:d2:
        7f:d7:49:b4
-----BEGIN CERTIFICATE-----
MIIEHDCCAwSgAwIBAgIBATANBgkqhkiG9w0BAQsFADCBkzELMAkGA1UEBhMCRlIx
DzANBgNVBAgMBlJhZGl1czESMBAGA1UEBwwJU29tZXdoZXJlMRUwEwYDVQQKDAxF
eGFtcGxlIEluYy4xIDAeBgkqhkiG9w0BCQEWEWFkbWluQGV4YW1wbGUub3JnMSYw
JAYDVQQDDB1FeGFtcGxlIENlcnRpZmljYXRlIEF1dGhvcml0eTAeFw0yMzEyMjAx
NDI5MzhaFw0yNDAyMTgxNDI5MzhaMHwxCzAJBgNVBAYTAkZSMQ8wDQYDVQQIDAZS
YWRpdXMxFTATBgNVBAoMDEV4YW1wbGUgSW5jLjEjMCEGA1UEAwwaRXhhbXBsZSBT
ZXJ2ZXIgQ2VydGlmaWNhdGUxIDAeBgkqhkiG9w0BCQEWEWFkbWluQGV4YW1wbGUu
b3JnMIIBIjANBgkqhkiG9w0BAQEFAAOCAQ8AMIIBCgKCAQEAmaI4cBbAebf1h4+q
DivwRNK7Nv1Yvl/zVQaT0yCxpBh7AOnADUOp7GYNG38ZiBOvKHtM4/MNpvy9KvwV
4xSHGSaf4DCw+59TL6+Rn1w+Nlus+noKOXV0plB1VOtWb/4Lkrd4uCwPgLFvalex
bLG1ESddjLvHSFB90n7xmH2Y32+oWialBlvt5S1kIxnEmwB6IgPTc1vJMxZsgBdQ
C0rNyGRGiXWhBPN2fem9qR7yuD7OUsYpMWeCGQRGNLVgs6oQV/+AgqafLqguWxN+
ZE5vN0Br6XQAqXakJAwYIZ1A5fpHYq6BlG6vwSmQdTzS5+uw3o0OU+4UqSNzHfe3
Cp4soQIDAQABo4GQMIGNMBMGA1UdJQQMMAoGCCsGAQUFBwMBMDYGA1UdHwQvMC0w
K6ApoCeGJWh0dHA6Ly93d3cuZXhhbXBsZS5jb20vZXhhbXBsZV9jYS5jcmwwHQYD
VR0OBBYEFNNbMM4nVXGkbfSAMvx++jrnPEDpMB8GA1UdIwQYMBaAFNOq2+Nc+vI2
k3sRIOdmsh+bTjyJMA0GCSqGSIb3DQEBCwUAA4IBAQA7JtfsKLpA0j49ACH5TrML
sxZC3V+D7oiIuj5q9T/XoUXqGsKqeP15i40GtVfVng/UUk7iRcFI+aF4qx21ZeZF
OIzFMO9W8CaGWCeeEPeQlGQLqvEimjri9wma2EhS1X42i+Ut5BUPkUV3X864oWVs
rZE4M7RD8X+OtRsYMM1K+JeZBgMw1CBUVBlHgSdpbfLags17kSXElnUDj0y2DEeU
HcD1FT/YdEjwN03eCUiAz7yUbWs96oIS1hMHs5hjX1akoUhEnTH10VPA7Dz/SlWP
Y6vfwoURU8pRGRrz4A+B7K3XvfuSEGuPhqUbrS+mgPGTGcHuXKiDXiRIQtJ/10m0
-----END CERTIFICATE-----
