Certificate:
    Data:
        Version: 3 (0x2)
        Serial Number: 1 (0x1)
        Signature Algorithm: sha256WithRSAEncryption
        Issuer: C=FR, ST=Radius, L=Somewhere, O=Example Inc./emailAddress=admin@example.org, CN=Example Certificate Authority
        Validity
            Not Before: Nov 27 17:48:17 2023 GMT
            Not After : Jan 26 17:48:17 2024 GMT
        Subject: C=FR, ST=Radius, O=Example Inc., CN=Example Server Certificate/emailAddress=admin@example.org
        Subject Public Key Info:
            Public Key Algorithm: rsaEncryption
                Public-Key: (2048 bit)
                Modulus:
                    00:e9:51:4d:96:81:68:b3:97:e9:e8:c8:35:61:4f:
                    ee:35:1a:12:53:82:a1:e0:94:a9:58:2b:4b:80:3c:
                    3d:12:9b:d8:31:9a:d5:c3:a8:e2:d4:bf:56:d6:76:
                    da:9f:84:96:0f:d9:72:61:36:de:9a:af:e9:e8:4c:
                    49:7b:ff:86:29:9c:6d:20:df:3f:12:ac:96:79:12:
                    ea:b2:59:b4:17:9b:81:3c:b1:60:8b:49:d2:26:9c:
                    42:62:5e:26:8d:e9:d9:f2:93:4d:ed:fe:b2:0a:ff:
                    55:6f:45:30:be:e7:d1:ba:ea:aa:42:d3:82:be:2b:
                    f2:c4:f2:37:b5:87:a4:8f:e8:6e:a7:7a:9b:b2:04:
                    b6:62:7c:36:be:1a:89:1f:57:75:8a:29:37:88:c8:
                    bc:21:81:1f:04:dd:1b:9c:d2:c8:12:3a:7a:dd:fc:
                    28:e6:21:c0:a7:fe:ea:df:f6:c4:a3:e9:ca:47:8e:
                    53:ba:9c:a5:be:c3:af:79:c2:cc:8c:b2:20:cd:86:
                    a1:90:53:7e:69:c4:c3:cf:ef:d2:cc:8d:34:cc:c3:
                    33:9f:e8:32:b5:98:6b:0b:c9:0d:d7:f7:ae:12:a0:
                    76:43:cd:45:2b:9f:0f:04:45:c9:cb:c6:d7:fa:dc:
                    74:5d:e8:3b:74:bb:87:fc:cb:24:5e:d1:d1:e3:a1:
                    15:af
                Exponent: 65537 (0x10001)
        X509v3 extensions:
            X509v3 Extended Key Usage: 
                TLS Web Server Authentication
            X509v3 CRL Distribution Points: 
                Full Name:
                  URI:http://www.example.com/example_ca.crl
            X509v3 Certificate Policies: 
                Policy: 1.3.6.1.4.1.40808.1.3.2
            X509v3 Subject Key Identifier: 
                0A:60:55:A3:6D:EF:DF:32:A9:28:61:52:BF:A3:7A:93:09:34:C9:FE
            X509v3 Authority Key Identifier: 
                C5:B6:E4:DE:D4:DA:3E:32:C3:F2:D7:CC:6C:FE:24:13:AF:C2:74:09
    Signature Algorithm: sha256WithRSAEncryption
    Signature Value:
        7a:44:88:9f:a6:b7:25:60:1a:b4:76:f5:94:52:1a:53:0c:1d:
        ae:8f:c5:57:b7:10:4e:48:e4:bd:fb:ba:6c:c7:f5:6e:ca:18:
        bd:e8:97:16:c0:f4:d5:ad:41:68:5b:6a:2f:c0:4e:23:a3:b6:
        26:f5:9a:3d:e6:6f:33:d8:7b:88:7a:b6:eb:c9:74:00:e6:df:
        6b:cd:00:28:86:9b:5f:2c:71:d9:78:30:83:45:d5:e0:ca:0a:
        dd:f0:5e:84:02:ac:ec:b1:d9:6b:bf:bd:5d:12:16:e7:1e:6b:
        11:81:77:f9:23:66:a1:35:46:25:97:f8:b4:fb:98:df:2b:1d:
        29:ea:dc:c5:0c:28:72:42:e8:7e:9d:8b:79:de:04:de:d2:2a:
        10:b4:be:34:f0:de:13:ed:23:e4:13:70:cb:93:4b:e1:77:31:
        ed:06:4f:ce:1a:d3:6e:bb:13:4e:40:af:e8:e5:a9:95:d3:12:
        e3:b7:62:63:b0:f6:65:6f:af:06:7b:ee:d3:bb:90:7f:c4:7d:
        ab:d6:4b:66:97:19:4b:9c:d6:63:1e:5f:18:a5:6f:bb:10:df:
        a0:d2:e3:8a:b9:d5:5a:97:33:b7:0a:68:cb:c2:5e:19:6e:8c:
        21:7a:80:a8:cc:ca:15:72:be:e9:2a:ef:f5:71:de:b4:6e:98:
        61:cb:c6:36
-----BEGIN CERTIFICATE-----
MIIENjCCAx6gAwIBAgIBATANBgkqhkiG9w0BAQsFADCBkzELMAkGA1UEBhMCRlIx
DzANBgNVBAgMBlJhZGl1czESMBAGA1UEBwwJU29tZXdoZXJlMRUwEwYDVQQKDAxF
eGFtcGxlIEluYy4xIDAeBgkqhkiG9w0BCQEWEWFkbWluQGV4YW1wbGUub3JnMSYw
JAYDVQQDDB1FeGFtcGxlIENlcnRpZmljYXRlIEF1dGhvcml0eTAeFw0yMzExMjcx
NzQ4MTdaFw0yNDAxMjYxNzQ4MTdaMHwxCzAJBgNVBAYTAkZSMQ8wDQYDVQQIDAZS
YWRpdXMxFTATBgNVBAoMDEV4YW1wbGUgSW5jLjEjMCEGA1UEAwwaRXhhbXBsZSBT
ZXJ2ZXIgQ2VydGlmaWNhdGUxIDAeBgkqhkiG9w0BCQEWEWFkbWluQGV4YW1wbGUu
b3JnMIIBIjANBgkqhkiG9w0BAQEFAAOCAQ8AMIIBCgKCAQEA6VFNloFos5fp6Mg1
YU/uNRoSU4Kh4JSpWCtLgDw9EpvYMZrVw6ji1L9W1nban4SWD9lyYTbemq/p6ExJ
e/+GKZxtIN8/EqyWeRLqslm0F5uBPLFgi0nSJpxCYl4mjenZ8pNN7f6yCv9Vb0Uw
vufRuuqqQtOCvivyxPI3tYekj+hup3qbsgS2Ynw2vhqJH1d1iik3iMi8IYEfBN0b
nNLIEjp63fwo5iHAp/7q3/bEo+nKR45TupylvsOvecLMjLIgzYahkFN+acTDz+/S
zI00zMMzn+gytZhrC8kN1/euEqB2Q81FK58PBEXJy8bX+tx0Xeg7dLuH/MskXtHR
46EVrwIDAQABo4GqMIGnMBMGA1UdJQQMMAoGCCsGAQUFBwMBMDYGA1UdHwQvMC0w
K6ApoCeGJWh0dHA6Ly93d3cuZXhhbXBsZS5jb20vZXhhbXBsZV9jYS5jcmwwGAYD
VR0gBBEwDzANBgsrBgEEAYK+aAEDAjAdBgNVHQ4EFgQUCmBVo23v3zKpKGFSv6N6
kwk0yf4wHwYDVR0jBBgwFoAUxbbk3tTaPjLD8tfMbP4kE6/CdAkwDQYJKoZIhvcN
AQELBQADggEBAHpEiJ+mtyVgGrR29ZRSGlMMHa6PxVe3EE5I5L37umzH9W7KGL3o
lxbA9NWtQWhbai/ATiOjtib1mj3mbzPYe4h6tuvJdADm32vNACiGm18scdl4MINF
1eDKCt3wXoQCrOyx2Wu/vV0SFuceaxGBd/kjZqE1RiWX+LT7mN8rHSnq3MUMKHJC
6H6di3neBN7SKhC0vjTw3hPtI+QTcMuTS+F3Me0GT84a0267E05Ar+jlqZXTEuO3
YmOw9mVvrwZ77tO7kH/EfavWS2aXGUuc1mMeXxilb7sQ36DS44q51VqXM7cKaMvC
XhlujCF6gKjMyhVyvukq7/Vx3rRumGHLxjY=
-----END CERTIFICATE-----
