Certificate:
    Data:
        Version: 3 (0x2)
        Serial Number: 1 (0x1)
        Signature Algorithm: sha256WithRSAEncryption
        Issuer: C=GL, ST=New World, L=Laugh Tale, O=StrawHat Networking/emailAddress=ca@strawhat.com, CN=ca.strawhat.com
        Validity
            Not Before: Nov 29 19:10:14 2023 GMT
            Not After : Jan 28 19:10:14 2024 GMT
        Subject: C=GL, ST=New World, O=StrawHat Networking, CN=radius.strawhat.com/emailAddress=radius@strawhat.com
        Subject Public Key Info:
            Public Key Algorithm: rsaEncryption
                Public-Key: (2048 bit)
                Modulus:
                    00:9f:ea:8c:82:b2:77:28:b9:1a:f3:42:8f:4b:56:
                    78:34:98:ff:d3:b3:f2:c0:87:3e:b2:e0:32:5c:43:
                    5c:36:27:db:b8:31:31:9d:2d:66:a5:c7:f8:d9:2d:
                    9e:4d:72:70:34:75:ac:37:f5:32:90:1b:bd:17:7d:
                    d8:d8:ff:da:b2:e0:3f:b6:f9:1d:5a:24:a5:53:cb:
                    d5:bd:79:7d:b3:b9:d6:39:78:27:6d:11:a8:a4:0e:
                    e9:66:9b:93:84:48:8e:7e:3b:f7:cf:ad:28:37:98:
                    86:ba:9f:82:96:b0:bc:1c:da:64:35:e1:be:b7:df:
                    74:cc:1c:c4:92:93:ac:8b:bb:fe:59:38:ff:5d:20:
                    43:7b:47:30:58:15:3a:36:5d:df:18:2a:a7:46:1f:
                    34:91:14:46:9f:1a:9c:19:10:fa:11:99:53:de:e6:
                    e6:15:d6:89:ba:08:06:9a:27:55:17:ec:a5:c3:94:
                    7d:f4:2e:ce:1a:6a:b2:c7:30:dc:46:cf:70:5d:db:
                    31:03:36:9b:d1:2e:ff:b0:cd:8e:2e:9f:e1:c5:72:
                    49:97:77:7e:6a:2c:57:21:8b:f1:77:77:98:28:ea:
                    93:28:59:64:85:c9:5e:cc:d3:f7:a2:4a:a4:d0:be:
                    33:c4:e9:c8:18:ef:4b:76:b2:12:7f:2a:a5:a0:0a:
                    ce:e5
                Exponent: 65537 (0x10001)
        X509v3 extensions:
            X509v3 Extended Key Usage: 
                TLS Web Server Authentication
            X509v3 CRL Distribution Points: 
                Full Name:
                  URI:http://www.example.com/example_ca.crl
            X509v3 Certificate Policies: 
                Policy: 1.3.6.1.4.1.40808.1.3.2
            X509v3 Subject Key Identifier: 
                E6:60:B3:24:7A:4D:97:1E:4A:97:DC:AE:94:05:B3:B2:79:CB:C8:F6
            X509v3 Authority Key Identifier: 
                10:C1:FA:AB:95:84:58:38:93:4F:FA:46:1A:8D:5C:E9:7D:CF:2E:6B
    Signature Algorithm: sha256WithRSAEncryption
    Signature Value:
        09:ab:2f:95:13:7c:b6:63:0c:ac:41:c0:30:74:48:77:13:80:
        74:65:5e:6e:9e:78:1b:c6:2b:df:fa:89:4d:8b:e3:d6:3a:06:
        9e:f6:7e:0d:df:c9:12:eb:e4:b4:53:6e:53:01:3b:0d:9b:3b:
        8f:ec:29:64:43:a5:fc:d7:3a:e2:de:46:ef:79:e8:33:9c:19:
        e3:59:de:4e:b3:48:f8:e7:5a:42:f3:f4:cb:18:cb:64:17:8a:
        4c:ef:91:aa:b4:8a:cf:ca:5c:a6:10:72:69:3a:a2:d4:58:f5:
        cf:a8:e9:a1:b4:0b:93:19:0e:4e:82:e6:00:57:ea:6e:85:6a:
        a7:a0:ab:b6:42:a0:57:85:dc:f9:c0:8d:25:c5:99:95:ec:96:
        64:4c:63:69:25:ae:da:5d:b2:4f:b0:ff:0d:b4:48:87:ad:6b:
        30:89:c6:17:bf:c5:bb:90:72:fc:5d:74:18:cd:ba:c0:2e:a7:
        f1:ef:6b:e0:8e:87:96:ab:bb:d5:24:6f:50:e3:4f:62:9a:67:
        1b:0f:c0:db:f1:c4:3c:1c:10:30:8f:64:72:d4:e0:3f:2a:df:
        56:1c:22:a1:e7:98:63:48:22:b9:9d:e9:49:85:9b:29:97:ad:
        70:59:40:0c:35:74:8c:30:5c:ce:37:9b:10:1b:2e:9f:1b:61:
        6d:93:bb:12
-----BEGIN CERTIFICATE-----
MIIENzCCAx+gAwIBAgIBATANBgkqhkiG9w0BAQsFADCBjjELMAkGA1UEBhMCR0wx
EjAQBgNVBAgMCU5ldyBXb3JsZDETMBEGA1UEBwwKTGF1Z2ggVGFsZTEcMBoGA1UE
CgwTU3RyYXdIYXQgTmV0d29ya2luZzEeMBwGCSqGSIb3DQEJARYPY2FAc3RyYXdo
YXQuY29tMRgwFgYDVQQDDA9jYS5zdHJhd2hhdC5jb20wHhcNMjMxMTI5MTkxMDE0
WhcNMjQwMTI4MTkxMDE0WjCBgTELMAkGA1UEBhMCR0wxEjAQBgNVBAgMCU5ldyBX
b3JsZDEcMBoGA1UECgwTU3RyYXdIYXQgTmV0d29ya2luZzEcMBoGA1UEAwwTcmFk
aXVzLnN0cmF3aGF0LmNvbTEiMCAGCSqGSIb3DQEJARYTcmFkaXVzQHN0cmF3aGF0
LmNvbTCCASIwDQYJKoZIhvcNAQEBBQADggEPADCCAQoCggEBAJ/qjIKydyi5GvNC
j0tWeDSY/9Oz8sCHPrLgMlxDXDYn27gxMZ0tZqXH+Nktnk1ycDR1rDf1MpAbvRd9
2Nj/2rLgP7b5HVokpVPL1b15fbO51jl4J20RqKQO6Wabk4RIjn4798+tKDeYhrqf
gpawvBzaZDXhvrffdMwcxJKTrIu7/lk4/10gQ3tHMFgVOjZd3xgqp0YfNJEURp8a
nBkQ+hGZU97m5hXWiboIBponVRfspcOUffQuzhpqsscw3EbPcF3bMQM2m9Eu/7DN
ji6f4cVySZd3fmosVyGL8Xd3mCjqkyhZZIXJXszT96JKpNC+M8TpyBjvS3ayEn8q
paAKzuUCAwEAAaOBqjCBpzATBgNVHSUEDDAKBggrBgEFBQcDATA2BgNVHR8ELzAt
MCugKaAnhiVodHRwOi8vd3d3LmV4YW1wbGUuY29tL2V4YW1wbGVfY2EuY3JsMBgG
A1UdIAQRMA8wDQYLKwYBBAGCvmgBAwIwHQYDVR0OBBYEFOZgsyR6TZceSpfcrpQF
s7J5y8j2MB8GA1UdIwQYMBaAFBDB+quVhFg4k0/6RhqNXOl9zy5rMA0GCSqGSIb3
DQEBCwUAA4IBAQAJqy+VE3y2YwysQcAwdEh3E4B0ZV5unngbxivf+olNi+PWOgae
9n4N38kS6+S0U25TATsNmzuP7ClkQ6X81zri3kbveegznBnjWd5Os0j451pC8/TL
GMtkF4pM75GqtIrPylymEHJpOqLUWPXPqOmhtAuTGQ5OguYAV+puhWqnoKu2QqBX
hdz5wI0lxZmV7JZkTGNpJa7aXbJPsP8NtEiHrWswicYXv8W7kHL8XXQYzbrALqfx
72vgjoeWq7vVJG9Q409immcbD8Db8cQ8HBAwj2Ry1OA/Kt9WHCKh55hjSCK5nelJ
hZspl61wWUAMNXSMMFzON5sQGy6fG2Ftk7sS
-----END CERTIFICATE-----
