Certificate:
    Data:
        Version: 3 (0x2)
        Serial Number: 2 (0x2)
        Signature Algorithm: sha256WithRSAEncryption
        Issuer: C=GL, ST=New World, L=Raftel, O=Straw Hat Networking/emailAddress=ca@strawhat.com, CN=ca.strawhat.com
        Validity
            Not Before: Dec  6 15:02:42 2023 GMT
            Not After : Feb  4 15:02:42 2024 GMT
        Subject: C=GL, ST=New World, O=Straw Hat Networking, CN=luffy@strawhat.com/emailAddress=luffy@strawhat.com
        Subject Public Key Info:
            Public Key Algorithm: rsaEncryption
                Public-Key: (2048 bit)
                Modulus:
                    00:bb:a7:3e:46:59:15:23:b0:87:c3:cc:30:ef:46:
                    dd:ba:11:6b:05:4f:28:28:fc:5d:e6:c5:aa:6b:de:
                    ba:16:78:79:68:ff:df:c6:f6:e6:9c:92:f7:50:6f:
                    85:bd:57:6b:29:58:61:b1:fc:be:64:5c:b4:97:33:
                    49:9e:39:ce:72:c6:81:f4:6d:9e:30:bb:27:b8:22:
                    06:93:b3:4d:b1:96:1e:20:cc:00:b3:9a:d6:72:b1:
                    c3:27:f1:d8:de:1e:7c:a1:71:d9:d0:67:b2:90:f0:
                    b6:51:a4:5d:0e:ee:72:cd:bc:21:28:76:3f:2e:31:
                    98:2e:73:6b:5a:71:49:2d:fd:6e:55:15:9b:25:44:
                    23:e1:c2:99:9a:64:35:42:90:92:3e:65:1b:c6:96:
                    b4:9d:ba:ba:cd:76:10:08:a5:2b:6b:32:86:54:00:
                    f5:86:3e:59:8b:bc:0b:6d:e6:44:c9:39:bd:28:56:
                    7e:e0:22:fe:5b:a5:0d:f4:83:e4:7c:44:da:05:49:
                    9d:1c:89:55:2e:44:76:69:4f:3c:2d:5c:c8:dc:14:
                    e9:00:66:a5:0b:d9:46:ce:16:36:57:36:db:27:84:
                    54:f7:a8:ad:35:97:5c:e6:27:d3:04:1a:89:74:6e:
                    18:7c:0d:03:55:81:f3:42:14:3a:20:bf:ed:6a:0d:
                    c4:f1
                Exponent: 65537 (0x10001)
        X509v3 extensions:
            X509v3 Extended Key Usage: 
                TLS Web Client Authentication
            X509v3 CRL Distribution Points: 
                Full Name:
                  URI:http://www.example.com/example_ca.crl
            X509v3 Subject Key Identifier: 
                F5:F4:D3:82:58:DF:6C:10:F0:2D:19:30:18:2E:3F:D0:80:E5:2D:CD
            X509v3 Authority Key Identifier: 
                E5:84:F6:12:87:75:09:FE:75:44:F4:FD:BA:52:0C:18:01:24:EE:E9
    Signature Algorithm: sha256WithRSAEncryption
    Signature Value:
        31:2c:b9:f3:5d:18:61:f2:2c:34:d1:43:6d:48:a2:96:ac:43:
        ac:1c:3f:ca:47:54:f5:0b:2c:7f:63:ab:99:0b:90:01:75:6f:
        a8:46:01:75:e9:89:df:1d:ee:e2:ec:4f:2c:98:fb:89:83:2a:
        b0:a3:ba:52:fb:50:0d:85:84:bf:9d:f9:f9:c8:e9:51:37:2b:
        f7:9e:94:ed:88:2b:9c:2d:87:7f:ec:6f:15:1d:e8:a5:40:9f:
        09:26:b2:c4:91:12:98:f8:07:68:03:eb:c1:cb:c1:72:80:d7:
        55:72:66:dd:5c:0f:57:c6:ac:8e:bf:84:df:96:b5:7b:c6:96:
        14:b3:ef:b0:26:10:db:fe:af:52:2d:23:dd:35:97:6e:df:f2:
        0b:29:6e:cc:10:15:77:08:90:dc:2a:e3:f9:4e:45:b5:91:b4:
        fa:2f:b8:d3:35:c0:26:7c:e3:bb:0d:41:a9:c5:b4:22:6f:38:
        50:38:30:af:99:88:c0:44:23:19:5d:e5:ed:10:50:86:01:6a:
        c9:b9:32:b4:cb:8d:0b:10:54:55:83:6f:9b:a4:b9:56:f0:56:
        88:d8:39:66:5f:ef:fc:3c:c2:ab:ea:a4:40:71:25:03:15:8c:
        04:1a:06:d6:7a:d3:e9:9f:2f:44:65:63:a4:31:0a:be:42:d2:
        87:00:ca:89
-----BEGIN CERTIFICATE-----
MIIEGTCCAwGgAwIBAgIBAjANBgkqhkiG9w0BAQsFADCBizELMAkGA1UEBhMCR0wx
EjAQBgNVBAgMCU5ldyBXb3JsZDEPMA0GA1UEBwwGUmFmdGVsMR0wGwYDVQQKDBRT
dHJhdyBIYXQgTmV0d29ya2luZzEeMBwGCSqGSIb3DQEJARYPY2FAc3RyYXdoYXQu
Y29tMRgwFgYDVQQDDA9jYS5zdHJhd2hhdC5jb20wHhcNMjMxMjA2MTUwMjQyWhcN
MjQwMjA0MTUwMjQyWjCBgDELMAkGA1UEBhMCR0wxEjAQBgNVBAgMCU5ldyBXb3Js
ZDEdMBsGA1UECgwUU3RyYXcgSGF0IE5ldHdvcmtpbmcxGzAZBgNVBAMMEmx1ZmZ5
QHN0cmF3aGF0LmNvbTEhMB8GCSqGSIb3DQEJARYSbHVmZnlAc3RyYXdoYXQuY29t
MIIBIjANBgkqhkiG9w0BAQEFAAOCAQ8AMIIBCgKCAQEAu6c+RlkVI7CHw8ww70bd
uhFrBU8oKPxd5sWqa966Fnh5aP/fxvbmnJL3UG+FvVdrKVhhsfy+ZFy0lzNJnjnO
csaB9G2eMLsnuCIGk7NNsZYeIMwAs5rWcrHDJ/HY3h58oXHZ0GeykPC2UaRdDu5y
zbwhKHY/LjGYLnNrWnFJLf1uVRWbJUQj4cKZmmQ1QpCSPmUbxpa0nbq6zXYQCKUr
azKGVAD1hj5Zi7wLbeZEyTm9KFZ+4CL+W6UN9IPkfETaBUmdHIlVLkR2aU88LVzI
3BTpAGalC9lGzhY2VzbbJ4RU96itNZdc5ifTBBqJdG4YfA0DVYHzQhQ6IL/tag3E
8QIDAQABo4GQMIGNMBMGA1UdJQQMMAoGCCsGAQUFBwMCMDYGA1UdHwQvMC0wK6Ap
oCeGJWh0dHA6Ly93d3cuZXhhbXBsZS5jb20vZXhhbXBsZV9jYS5jcmwwHQYDVR0O
BBYEFPX004JY32wQ8C0ZMBguP9CA5S3NMB8GA1UdIwQYMBaAFOWE9hKHdQn+dUT0
/bpSDBgBJO7pMA0GCSqGSIb3DQEBCwUAA4IBAQAxLLnzXRhh8iw00UNtSKKWrEOs
HD/KR1T1Cyx/Y6uZC5ABdW+oRgF16YnfHe7i7E8smPuJgyqwo7pS+1ANhYS/nfn5
yOlRNyv3npTtiCucLYd/7G8VHeilQJ8JJrLEkRKY+AdoA+vBy8FygNdVcmbdXA9X
xqyOv4TflrV7xpYUs++wJhDb/q9SLSPdNZdu3/ILKW7MEBV3CJDcKuP5TkW1kbT6
L7jTNcAmfOO7DUGpxbQibzhQODCvmYjARCMZXeXtEFCGAWrJuTK0y40LEFRVg2+b
pLlW8FaI2DlmX+/8PMKr6qRAcSUDFYwEGgbWetPpny9EZWOkMQq+QtKHAMqJ
-----END CERTIFICATE-----
