Certificate:
    Data:
        Version: 3 (0x2)
        Serial Number: 2 (0x2)
        Signature Algorithm: sha256WithRSAEncryption
        Issuer: C=FR, ST=Radius, L=Somewhere, O=Example Inc./emailAddress=admin@example.org, CN=Example Certificate Authority
        Validity
            Not Before: Feb 22 15:35:09 2024 GMT
            Not After : Apr 22 15:35:09 2024 GMT
        Subject: C=FR, ST=Radius, O=Example Inc., CN=bob@example.org/emailAddress=bob@example.org
        Subject Public Key Info:
            Public Key Algorithm: rsaEncryption
                Public-Key: (2048 bit)
                Modulus:
                    00:c2:26:b4:b0:9d:98:e5:ac:19:96:48:2e:fa:5b:
                    bc:f8:3b:3f:91:15:61:84:9f:1a:78:83:1c:bb:61:
                    27:5a:47:ca:d6:f1:3c:dc:63:b1:9e:e9:64:eb:c2:
                    bd:52:8b:95:6a:cd:51:56:50:ee:1f:46:5f:a8:73:
                    37:d4:c6:97:b1:d5:4a:5a:88:44:c6:2a:5e:f0:dc:
                    3a:a5:94:35:59:5b:07:2f:9a:ef:df:70:86:d0:ff:
                    74:3d:ef:e4:5c:6a:a1:8a:7a:c1:63:58:93:13:ad:
                    d2:f8:e0:e6:b9:63:4d:57:20:79:b5:c1:46:d9:2a:
                    99:cd:f0:11:f6:dc:08:12:37:09:7f:55:6b:21:51:
                    d9:cb:f9:19:75:cc:7e:dc:31:44:44:fa:a8:4f:a1:
                    ac:56:5d:42:d2:6e:fa:90:51:5f:5a:de:9f:d7:98:
                    ed:66:b9:04:a2:16:a2:4f:47:9c:91:5c:ce:8e:8e:
                    19:5c:6c:d1:e1:ac:af:23:ee:8d:e7:a8:e1:2a:b4:
                    f5:b6:9c:77:89:2e:d8:27:92:dc:ce:94:0d:22:e9:
                    d2:5e:f8:cd:c2:cf:69:9f:15:72:91:be:49:c4:bc:
                    c6:3c:20:17:0a:69:32:74:96:a6:03:ca:b0:13:e2:
                    73:64:e7:d2:dc:14:39:1d:9a:65:9e:a9:d4:73:b7:
                    36:cd
                Exponent: 65537 (0x10001)
        X509v3 extensions:
            X509v3 Extended Key Usage: 
                TLS Web Client Authentication
            X509v3 CRL Distribution Points: 
                Full Name:
                  URI:http://www.example.com/example_ca.crl
            X509v3 Subject Key Identifier: 
                45:D4:C4:F3:AE:14:53:C1:14:44:19:71:DC:9A:0E:52:CC:71:46:63
            X509v3 Authority Key Identifier: 
                72:23:0C:93:CA:78:A5:46:7A:28:51:98:58:E0:63:1C:8D:93:74:A1
    Signature Algorithm: sha256WithRSAEncryption
    Signature Value:
        23:10:d3:52:63:af:8f:98:b9:0e:2f:fc:b2:aa:d0:15:73:1e:
        59:18:0f:80:8d:43:4f:9c:9a:e2:84:b7:19:39:a8:c9:9f:b1:
        9e:12:57:39:8b:bc:63:6a:27:00:fd:96:b3:c3:27:ba:a8:8a:
        94:bb:24:58:5a:d9:c1:47:0c:8d:a6:b6:d2:20:3d:cb:fd:c2:
        94:1c:c0:83:e9:ef:f5:72:88:03:b7:52:2d:b7:23:53:8f:bc:
        c4:79:ee:53:5b:11:8e:42:fc:f4:00:cc:99:13:d7:49:b9:89:
        71:3c:46:56:bc:6f:16:96:75:cc:54:e2:36:4b:e1:1e:20:85:
        f5:e6:8a:98:57:8b:aa:cb:3c:c5:6d:af:7a:85:70:e5:54:36:
        3e:5d:61:ba:9a:16:30:57:f8:4a:d3:f2:54:12:a8:73:41:9a:
        78:bb:87:8b:5a:51:44:bd:72:36:cc:77:a1:d1:62:d0:ce:af:
        02:18:2c:4e:bd:13:52:3e:87:72:ad:27:fb:cc:d2:5d:2d:a0:
        d2:f9:fb:e9:1f:75:23:e0:2a:0b:53:f5:c1:de:0d:02:44:5d:
        97:42:08:7a:ef:ed:2e:58:eb:f9:fb:1b:7f:a3:c8:a5:aa:0b:
        e1:ad:34:70:7f:b9:da:59:71:23:76:67:88:a3:65:98:b8:b0:
        d3:89:b1:a7
-----BEGIN CERTIFICATE-----
MIIEDzCCAvegAwIBAgIBAjANBgkqhkiG9w0BAQsFADCBkzELMAkGA1UEBhMCRlIx
DzANBgNVBAgMBlJhZGl1czESMBAGA1UEBwwJU29tZXdoZXJlMRUwEwYDVQQKDAxF
eGFtcGxlIEluYy4xIDAeBgkqhkiG9w0BCQEWEWFkbWluQGV4YW1wbGUub3JnMSYw
JAYDVQQDDB1FeGFtcGxlIENlcnRpZmljYXRlIEF1dGhvcml0eTAeFw0yNDAyMjIx
NTM1MDlaFw0yNDA0MjIxNTM1MDlaMG8xCzAJBgNVBAYTAkZSMQ8wDQYDVQQIDAZS
YWRpdXMxFTATBgNVBAoMDEV4YW1wbGUgSW5jLjEYMBYGA1UEAwwPYm9iQGV4YW1w
bGUub3JnMR4wHAYJKoZIhvcNAQkBFg9ib2JAZXhhbXBsZS5vcmcwggEiMA0GCSqG
SIb3DQEBAQUAA4IBDwAwggEKAoIBAQDCJrSwnZjlrBmWSC76W7z4Oz+RFWGEnxp4
gxy7YSdaR8rW8TzcY7Ge6WTrwr1Si5VqzVFWUO4fRl+oczfUxpex1UpaiETGKl7w
3DqllDVZWwcvmu/fcIbQ/3Q97+RcaqGKesFjWJMTrdL44Oa5Y01XIHm1wUbZKpnN
8BH23AgSNwl/VWshUdnL+Rl1zH7cMURE+qhPoaxWXULSbvqQUV9a3p/XmO1muQSi
FqJPR5yRXM6OjhlcbNHhrK8j7o3nqOEqtPW2nHeJLtgnktzOlA0i6dJe+M3Cz2mf
FXKRvknEvMY8IBcKaTJ0lqYDyrAT4nNk59LcFDkdmmWeqdRztzbNAgMBAAGjgZAw
gY0wEwYDVR0lBAwwCgYIKwYBBQUHAwIwNgYDVR0fBC8wLTAroCmgJ4YlaHR0cDov
L3d3dy5leGFtcGxlLmNvbS9leGFtcGxlX2NhLmNybDAdBgNVHQ4EFgQURdTE864U
U8EURBlx3JoOUsxxRmMwHwYDVR0jBBgwFoAUciMMk8p4pUZ6KFGYWOBjHI2TdKEw
DQYJKoZIhvcNAQELBQADggEBACMQ01Jjr4+YuQ4v/LKq0BVzHlkYD4CNQ0+cmuKE
txk5qMmfsZ4SVzmLvGNqJwD9lrPDJ7qoipS7JFha2cFHDI2mttIgPcv9wpQcwIPp
7/VyiAO3Ui23I1OPvMR57lNbEY5C/PQAzJkT10m5iXE8Rla8bxaWdcxU4jZL4R4g
hfXmiphXi6rLPMVtr3qFcOVUNj5dYbqaFjBX+ErT8lQSqHNBmni7h4taUUS9cjbM
d6HRYtDOrwIYLE69E1I+h3KtJ/vM0l0toNL5++kfdSPgKgtT9cHeDQJEXZdCCHrv
7S5Y6/n7G3+jyKWqC+GtNHB/udpZcSN2Z4ijZZi4sNOJsac=
-----END CERTIFICATE-----
