Certificate:
    Data:
        Version: 3 (0x2)
        Serial Number: 2 (0x2)
        Signature Algorithm: sha256WithRSAEncryption
        Issuer: C=FR, ST=Radius, L=Somewhere, O=Example Inc./emailAddress=admin@example.org, CN=Example Certificate Authority
        Validity
            Not Before: Dec 20 14:29:43 2023 GMT
            Not After : Feb 18 14:29:43 2024 GMT
        Subject: C=FR, ST=Radius, O=Example Inc., CN=bob@example.org/emailAddress=bob@example.org
        Subject Public Key Info:
            Public Key Algorithm: rsaEncryption
                Public-Key: (2048 bit)
                Modulus:
                    00:cc:b0:7e:90:ae:19:b9:a3:79:6a:a2:e1:4f:39:
                    e1:5f:ab:a2:69:65:3a:4d:5b:76:c6:a3:68:e6:21:
                    ec:22:68:5c:ed:8b:65:56:38:95:3d:04:4f:bc:2f:
                    be:29:ce:9a:83:16:51:8b:71:3d:56:2a:8d:18:67:
                    6c:0e:ca:9a:b7:0d:27:01:01:e6:68:75:99:4f:6a:
                    34:a4:d3:25:ea:74:31:70:7e:0e:2e:68:f0:2c:04:
                    1e:c0:dd:b1:fa:d3:46:25:9c:e4:8b:cd:53:68:88:
                    f5:b6:cf:96:a9:7c:3e:31:fa:29:92:54:b6:a9:f9:
                    fd:65:30:3b:7c:45:98:75:42:ff:f2:ed:8b:ca:97:
                    2f:5e:6f:7b:dd:3b:94:ba:52:8e:13:dd:f2:38:73:
                    12:cc:f1:56:0a:64:f9:d9:f0:ef:88:91:0e:35:b9:
                    ce:24:12:e1:94:79:06:57:e4:95:d1:52:c8:26:64:
                    6d:78:8c:9b:7d:e0:9b:86:a7:77:8b:dc:93:e9:84:
                    ae:cc:39:84:e0:07:b0:64:d5:c5:02:7c:57:e4:37:
                    b8:82:5b:28:85:59:c7:7a:3c:5a:1c:50:55:76:6c:
                    f0:03:f1:27:8c:d2:3a:4d:30:3b:a1:91:c5:2a:0e:
                    da:da:47:df:23:bd:d7:fa:e5:f1:48:de:c5:4c:14:
                    57:a5
                Exponent: 65537 (0x10001)
        X509v3 extensions:
            X509v3 Extended Key Usage: 
                TLS Web Client Authentication
            X509v3 CRL Distribution Points: 
                Full Name:
                  URI:http://www.example.com/example_ca.crl
            X509v3 Subject Key Identifier: 
                67:1C:EB:00:5B:41:72:5F:A0:09:BC:F8:67:E0:43:41:08:71:4F:B2
            X509v3 Authority Key Identifier: 
                D3:AA:DB:E3:5C:FA:F2:36:93:7B:11:20:E7:66:B2:1F:9B:4E:3C:89
    Signature Algorithm: sha256WithRSAEncryption
    Signature Value:
        44:e7:a1:a3:c2:f6:47:57:6f:ee:2e:1d:8b:78:73:b0:f5:35:
        1d:f0:1c:7a:70:ca:8d:76:74:8b:0c:57:d2:7b:d1:2c:e1:3a:
        48:13:c4:8d:6d:c3:b5:81:cf:76:1e:f8:b9:ca:a6:4f:99:fb:
        d7:84:96:c7:da:16:0b:b1:1f:fb:25:b2:59:0a:08:ed:30:14:
        f3:ae:27:65:cb:34:76:15:56:24:51:36:ec:53:4b:d1:4c:53:
        84:02:c7:f5:93:ee:94:81:9e:73:ea:66:ce:0a:9c:c1:fb:b6:
        15:00:ed:49:77:db:89:40:4d:6d:14:86:90:6f:d9:08:94:99:
        eb:6b:4c:ab:7d:a1:de:f0:7e:4e:26:d2:36:76:83:37:5e:90:
        6d:cb:c8:1e:08:b2:4b:55:17:2a:62:cc:87:11:b6:66:3b:07:
        65:df:31:30:db:dc:2f:4c:92:03:70:8a:20:dc:0f:0c:02:48:
        bb:1f:45:35:1c:17:b0:e0:d0:68:1d:17:77:f2:15:f2:e1:b6:
        26:83:3d:00:99:bf:d0:d5:5e:ce:d7:93:f0:73:a4:79:c8:92:
        a3:71:87:cb:4e:b6:ba:00:2b:63:f3:41:54:58:2c:69:51:15:
        c2:c6:7a:27:f1:8a:e9:ca:c4:c9:ea:c0:34:ac:58:6e:2b:e1:
        8f:ff:b5:8c
-----BEGIN CERTIFICATE-----
MIIEDzCCAvegAwIBAgIBAjANBgkqhkiG9w0BAQsFADCBkzELMAkGA1UEBhMCRlIx
DzANBgNVBAgMBlJhZGl1czESMBAGA1UEBwwJU29tZXdoZXJlMRUwEwYDVQQKDAxF
eGFtcGxlIEluYy4xIDAeBgkqhkiG9w0BCQEWEWFkbWluQGV4YW1wbGUub3JnMSYw
JAYDVQQDDB1FeGFtcGxlIENlcnRpZmljYXRlIEF1dGhvcml0eTAeFw0yMzEyMjAx
NDI5NDNaFw0yNDAyMTgxNDI5NDNaMG8xCzAJBgNVBAYTAkZSMQ8wDQYDVQQIDAZS
YWRpdXMxFTATBgNVBAoMDEV4YW1wbGUgSW5jLjEYMBYGA1UEAwwPYm9iQGV4YW1w
bGUub3JnMR4wHAYJKoZIhvcNAQkBFg9ib2JAZXhhbXBsZS5vcmcwggEiMA0GCSqG
SIb3DQEBAQUAA4IBDwAwggEKAoIBAQDMsH6Qrhm5o3lqouFPOeFfq6JpZTpNW3bG
o2jmIewiaFzti2VWOJU9BE+8L74pzpqDFlGLcT1WKo0YZ2wOypq3DScBAeZodZlP
ajSk0yXqdDFwfg4uaPAsBB7A3bH600YlnOSLzVNoiPW2z5apfD4x+imSVLap+f1l
MDt8RZh1Qv/y7YvKly9eb3vdO5S6Uo4T3fI4cxLM8VYKZPnZ8O+IkQ41uc4kEuGU
eQZX5JXRUsgmZG14jJt94JuGp3eL3JPphK7MOYTgB7Bk1cUCfFfkN7iCWyiFWcd6
PFocUFV2bPAD8SeM0jpNMDuhkcUqDtraR98jvdf65fFI3sVMFFelAgMBAAGjgZAw
gY0wEwYDVR0lBAwwCgYIKwYBBQUHAwIwNgYDVR0fBC8wLTAroCmgJ4YlaHR0cDov
L3d3dy5leGFtcGxlLmNvbS9leGFtcGxlX2NhLmNybDAdBgNVHQ4EFgQUZxzrAFtB
cl+gCbz4Z+BDQQhxT7IwHwYDVR0jBBgwFoAU06rb41z68jaTexEg52ayH5tOPIkw
DQYJKoZIhvcNAQELBQADggEBAETnoaPC9kdXb+4uHYt4c7D1NR3wHHpwyo12dIsM
V9J70SzhOkgTxI1tw7WBz3Ye+LnKpk+Z+9eElsfaFguxH/slslkKCO0wFPOuJ2XL
NHYVViRRNuxTS9FMU4QCx/WT7pSBnnPqZs4KnMH7thUA7Ul324lATW0UhpBv2QiU
metrTKt9od7wfk4m0jZ2gzdekG3LyB4IsktVFypizIcRtmY7B2XfMTDb3C9MkgNw
iiDcDwwCSLsfRTUcF7Dg0GgdF3fyFfLhtiaDPQCZv9DVXs7Xk/BzpHnIkqNxh8tO
troAK2PzQVRYLGlRFcLGeifxiunKxMnqwDSsWG4r4Y//tYw=
-----END CERTIFICATE-----
