Certificate:
    Data:
        Version: 3 (0x2)
        Serial Number: 1 (0x1)
        Signature Algorithm: sha256WithRSAEncryption
        Issuer: C=FR, ST=Radius, L=Somewhere, O=Example Inc./emailAddress=admin@example.org, CN=Example Certificate Authority
        Validity
            Not Before: Feb 22 15:35:06 2024 GMT
            Not After : Apr 22 15:35:06 2024 GMT
        Subject: C=FR, ST=Radius, O=Example Inc., CN=Example Server Certificate/emailAddress=admin@example.org
        Subject Public Key Info:
            Public Key Algorithm: rsaEncryption
                Public-Key: (2048 bit)
                Modulus:
                    00:c5:1b:99:4f:3b:3b:f1:6d:0e:95:28:5e:9c:5c:
                    e6:54:c9:91:fa:f7:47:53:4a:22:9e:29:3e:87:ca:
                    6a:40:68:bd:24:19:2b:79:fc:71:bd:c4:04:91:b6:
                    7a:25:2f:01:61:f4:b6:9e:5d:df:f9:78:78:95:2a:
                    cb:b5:9d:5c:9a:f1:1f:33:b3:45:10:4f:6f:e1:ce:
                    00:9c:d2:76:8f:4a:12:43:63:b2:24:ac:62:59:ce:
                    64:6b:6f:54:ca:ea:27:88:66:5e:ba:e1:9b:c8:f3:
                    da:5e:b6:16:4e:eb:a7:99:e7:37:d9:de:09:51:dc:
                    2a:7b:1f:c2:35:d4:aa:ba:a1:5b:f9:b8:55:17:48:
                    fa:f9:8e:c5:7f:13:25:87:96:39:a8:20:4f:31:09:
                    ec:a1:c7:32:3b:b5:4c:de:77:f3:05:43:d0:cd:f6:
                    be:a9:df:7a:b3:82:cf:aa:3e:ed:d7:36:02:88:37:
                    e3:11:83:81:5b:7b:d8:52:40:6b:77:a8:5f:08:5b:
                    a2:33:3a:b8:5e:81:1f:9c:f8:55:3d:5c:ff:88:a5:
                    52:ed:37:f1:0c:61:21:c2:1c:5c:94:f4:9b:0d:6b:
                    d0:02:e1:22:13:1a:05:2b:02:37:40:e1:77:dc:a5:
                    09:63:ab:1e:6b:1e:01:41:2e:43:73:cb:55:27:91:
                    b7:39
                Exponent: 65537 (0x10001)
        X509v3 extensions:
            X509v3 Extended Key Usage: 
                TLS Web Server Authentication
            X509v3 CRL Distribution Points: 
                Full Name:
                  URI:http://www.example.com/example_ca.crl
            X509v3 Subject Key Identifier: 
                62:52:43:DF:CB:AE:EA:BA:71:76:10:E5:56:87:9E:34:EC:FD:22:F1
            X509v3 Authority Key Identifier: 
                72:23:0C:93:CA:78:A5:46:7A:28:51:98:58:E0:63:1C:8D:93:74:A1
    Signature Algorithm: sha256WithRSAEncryption
    Signature Value:
        66:e5:b3:fb:d2:3f:38:d9:2d:f5:9b:cf:6b:0f:64:b9:32:30:
        60:17:32:0e:f1:32:16:41:24:cd:ef:fb:3d:4d:ab:98:0a:5b:
        b4:4d:43:a1:24:22:06:aa:28:d0:87:c9:b2:d2:32:31:e8:10:
        09:30:d9:be:04:97:ab:e1:0f:12:02:56:96:5f:70:78:d6:ae:
        7a:5e:99:56:97:1e:05:8c:4e:9a:59:dd:b4:2d:b1:80:9f:4f:
        2e:e0:fa:13:66:2f:97:ab:68:c8:ff:90:16:94:6f:d5:0c:a7:
        40:b5:ae:86:b7:f8:97:73:71:26:db:53:74:cd:79:95:58:22:
        b9:16:ce:f4:df:78:45:32:78:44:47:04:e2:1b:37:f9:d3:a9:
        ca:1d:e5:08:ea:8f:2e:4d:3c:e8:08:7b:f5:31:fb:5b:59:90:
        f4:9e:75:25:92:8f:33:59:10:f5:fa:3c:2a:60:47:7b:ab:7c:
        c5:9f:68:ab:90:92:3f:05:f9:56:01:21:1f:1b:e3:ee:b7:0a:
        e1:d8:eb:e6:cd:17:9f:f2:5a:0c:23:7b:03:05:07:e3:6a:2b:
        18:5a:78:bc:03:16:1a:f3:3a:9c:93:c6:aa:9b:58:b1:20:f5:
        fd:81:e7:6e:be:08:f5:8c:f0:18:e4:33:78:8c:d5:91:8e:fb:
        b5:59:77:b8
-----BEGIN CERTIFICATE-----
MIIEHDCCAwSgAwIBAgIBATANBgkqhkiG9w0BAQsFADCBkzELMAkGA1UEBhMCRlIx
DzANBgNVBAgMBlJhZGl1czESMBAGA1UEBwwJU29tZXdoZXJlMRUwEwYDVQQKDAxF
eGFtcGxlIEluYy4xIDAeBgkqhkiG9w0BCQEWEWFkbWluQGV4YW1wbGUub3JnMSYw
JAYDVQQDDB1FeGFtcGxlIENlcnRpZmljYXRlIEF1dGhvcml0eTAeFw0yNDAyMjIx
NTM1MDZaFw0yNDA0MjIxNTM1MDZaMHwxCzAJBgNVBAYTAkZSMQ8wDQYDVQQIDAZS
YWRpdXMxFTATBgNVBAoMDEV4YW1wbGUgSW5jLjEjMCEGA1UEAwwaRXhhbXBsZSBT
ZXJ2ZXIgQ2VydGlmaWNhdGUxIDAeBgkqhkiG9w0BCQEWEWFkbWluQGV4YW1wbGUu
b3JnMIIBIjANBgkqhkiG9w0BAQEFAAOCAQ8AMIIBCgKCAQEAxRuZTzs78W0OlShe
nFzmVMmR+vdHU0oinik+h8pqQGi9JBkrefxxvcQEkbZ6JS8BYfS2nl3f+Xh4lSrL
tZ1cmvEfM7NFEE9v4c4AnNJ2j0oSQ2OyJKxiWc5ka29UyuoniGZeuuGbyPPaXrYW
Tuunmec32d4JUdwqex/CNdSquqFb+bhVF0j6+Y7FfxMlh5Y5qCBPMQnsoccyO7VM
3nfzBUPQzfa+qd96s4LPqj7t1zYCiDfjEYOBW3vYUkBrd6hfCFuiMzq4XoEfnPhV
PVz/iKVS7TfxDGEhwhxclPSbDWvQAuEiExoFKwI3QOF33KUJY6seax4BQS5Dc8tV
J5G3OQIDAQABo4GQMIGNMBMGA1UdJQQMMAoGCCsGAQUFBwMBMDYGA1UdHwQvMC0w
K6ApoCeGJWh0dHA6Ly93d3cuZXhhbXBsZS5jb20vZXhhbXBsZV9jYS5jcmwwHQYD
VR0OBBYEFGJSQ9/Lruq6cXYQ5VaHnjTs/SLxMB8GA1UdIwQYMBaAFHIjDJPKeKVG
eihRmFjgYxyNk3ShMA0GCSqGSIb3DQEBCwUAA4IBAQBm5bP70j842S31m89rD2S5
MjBgFzIO8TIWQSTN7/s9TauYClu0TUOhJCIGqijQh8my0jIx6BAJMNm+BJer4Q8S
AlaWX3B41q56XplWlx4FjE6aWd20LbGAn08u4PoTZi+Xq2jI/5AWlG/VDKdAta6G
t/iXc3Em21N0zXmVWCK5Fs7033hFMnhERwTiGzf506nKHeUI6o8uTTzoCHv1Mftb
WZD0nnUlko8zWRD1+jwqYEd7q3zFn2irkJI/BflWASEfG+Putwrh2OvmzRef8loM
I3sDBQfjaisYWni8AxYa8zqck8aqm1ixIPX9geduvgj1jPAY5DN4jNWRjvu1WXe4
-----END CERTIFICATE-----
