Certificate:
    Data:
        Version: 3 (0x2)
        Serial Number: 1 (0x1)
        Signature Algorithm: sha256WithRSAEncryption
        Issuer: C=GL, ST=New World, L=Raftel, O=Straw Hat Networking/emailAddress=ca@strawhat.com, CN=ca.strawhat.com
        Validity
            Not Before: Nov 30 16:33:16 2023 GMT
            Not After : Jan 29 16:33:16 2024 GMT
        Subject: C=GL, ST=New World, O=Straw Hat Networking, CN=radius.strawhat.com/emailAddress=radius@strawhat.com
        Subject Public Key Info:
            Public Key Algorithm: rsaEncryption
                Public-Key: (2048 bit)
                Modulus:
                    00:c5:0b:f7:7f:45:d9:d0:76:3b:9e:e3:9f:65:56:
                    9c:83:d0:e5:8d:79:1e:0c:0a:ed:7b:c2:4d:54:aa:
                    a3:62:b3:9b:7b:02:2b:1b:0a:b2:20:38:a9:7f:a1:
                    f4:da:fe:0f:a6:0e:d3:9d:f9:42:70:c1:c3:a3:1c:
                    7b:49:c1:18:4d:4a:a5:75:54:42:35:8e:58:91:69:
                    6e:81:f9:c0:fc:c1:00:b5:0c:ea:f0:43:d0:c6:2d:
                    c3:5d:81:b4:8a:2b:51:50:79:af:9e:c2:18:f7:50:
                    ee:e4:92:0b:2d:f0:2e:f5:d0:5e:76:fa:11:8f:50:
                    1a:cf:93:bb:60:c8:66:e8:f2:4e:e2:41:93:78:32:
                    18:19:98:84:cf:49:bf:0d:69:76:a7:0e:8e:db:d6:
                    9f:53:b8:23:c2:a2:eb:c8:4b:f1:00:68:48:b1:49:
                    17:6e:0a:fe:71:91:7c:b3:15:21:57:d3:b7:34:f0:
                    03:9e:94:38:af:11:da:d0:5a:0b:ff:91:26:e1:df:
                    28:03:6d:c8:6b:28:13:ca:eb:94:f8:25:1f:83:f8:
                    3d:d6:8a:7f:d8:d4:1d:31:9a:f4:ca:ef:52:81:e4:
                    b2:09:ec:e8:bb:1e:85:94:e6:8d:2d:b4:12:cd:6a:
                    be:fd:63:ef:61:ed:18:14:40:25:07:bc:5c:ca:19:
                    a9:25
                Exponent: 65537 (0x10001)
        X509v3 extensions:
            X509v3 Extended Key Usage: 
                TLS Web Server Authentication
            X509v3 CRL Distribution Points: 
                Full Name:
                  URI:http://www.example.com/example_ca.crl
            X509v3 Certificate Policies: 
                Policy: 1.3.6.1.4.1.40808.1.3.2
            X509v3 Subject Key Identifier: 
                FA:F8:42:BF:15:C5:1A:A3:72:7D:71:1D:54:2E:4F:0E:47:E0:7C:6F
            X509v3 Authority Key Identifier: 
                DD:6B:1C:9F:A2:C7:DF:57:63:0D:C0:60:52:3F:18:B2:54:35:5A:83
    Signature Algorithm: sha256WithRSAEncryption
    Signature Value:
        3c:3d:79:b3:de:0f:dd:30:6b:41:df:14:2d:6e:73:fe:22:c9:
        03:52:36:ce:d0:df:ab:30:8f:0b:be:7c:8c:7d:03:83:0f:f8:
        50:37:8e:5a:e4:4d:df:ff:27:dc:c1:8e:cf:5b:65:e5:53:d6:
        c2:f3:ae:0f:e8:6d:76:59:4c:80:37:da:e4:5f:74:e9:77:48:
        21:68:ec:31:b1:00:d3:17:60:f1:73:89:ec:04:6d:4e:cb:06:
        1b:ff:8c:e3:76:df:ee:f7:6c:a8:23:be:23:59:67:cf:05:21:
        10:e8:d2:00:56:6e:ad:06:cc:77:03:95:36:f5:57:95:b9:e2:
        51:83:95:e5:1d:9d:b4:20:89:42:f9:1e:0a:7b:99:73:08:19:
        ea:fc:ee:cb:5b:7b:01:e3:b8:b8:48:10:37:c3:e7:0d:68:55:
        a8:16:66:5e:59:c1:ac:37:a1:60:d0:f3:cb:f6:52:ba:e5:23:
        e8:2c:26:25:3a:bc:6f:bc:1c:73:6f:f0:04:d3:17:db:a0:a5:
        31:2f:ce:67:c3:2a:5a:b9:1c:d8:a0:de:91:69:7a:36:c1:c5:
        28:88:a5:5a:f4:1f:75:54:fa:d2:b6:c8:71:61:3f:2f:f3:96:
        d0:41:2a:bd:01:b0:26:35:a0:75:3a:e1:c4:a9:50:c7:7f:34:
        6e:b3:3b:a6
-----BEGIN CERTIFICATE-----
MIIENTCCAx2gAwIBAgIBATANBgkqhkiG9w0BAQsFADCBizELMAkGA1UEBhMCR0wx
EjAQBgNVBAgMCU5ldyBXb3JsZDEPMA0GA1UEBwwGUmFmdGVsMR0wGwYDVQQKDBRT
dHJhdyBIYXQgTmV0d29ya2luZzEeMBwGCSqGSIb3DQEJARYPY2FAc3RyYXdoYXQu
Y29tMRgwFgYDVQQDDA9jYS5zdHJhd2hhdC5jb20wHhcNMjMxMTMwMTYzMzE2WhcN
MjQwMTI5MTYzMzE2WjCBgjELMAkGA1UEBhMCR0wxEjAQBgNVBAgMCU5ldyBXb3Js
ZDEdMBsGA1UECgwUU3RyYXcgSGF0IE5ldHdvcmtpbmcxHDAaBgNVBAMME3JhZGl1
cy5zdHJhd2hhdC5jb20xIjAgBgkqhkiG9w0BCQEWE3JhZGl1c0BzdHJhd2hhdC5j
b20wggEiMA0GCSqGSIb3DQEBAQUAA4IBDwAwggEKAoIBAQDFC/d/RdnQdjue459l
VpyD0OWNeR4MCu17wk1UqqNis5t7AisbCrIgOKl/ofTa/g+mDtOd+UJwwcOjHHtJ
wRhNSqV1VEI1jliRaW6B+cD8wQC1DOrwQ9DGLcNdgbSKK1FQea+ewhj3UO7kkgst
8C710F52+hGPUBrPk7tgyGbo8k7iQZN4MhgZmITPSb8NaXanDo7b1p9TuCPCouvI
S/EAaEixSRduCv5xkXyzFSFX07c08AOelDivEdrQWgv/kSbh3ygDbchrKBPK65T4
JR+D+D3Win/Y1B0xmvTK71KB5LIJ7Oi7HoWU5o0ttBLNar79Y+9h7RgUQCUHvFzK
GaklAgMBAAGjgaowgacwEwYDVR0lBAwwCgYIKwYBBQUHAwEwNgYDVR0fBC8wLTAr
oCmgJ4YlaHR0cDovL3d3dy5leGFtcGxlLmNvbS9leGFtcGxlX2NhLmNybDAYBgNV
HSAEETAPMA0GCysGAQQBgr5oAQMCMB0GA1UdDgQWBBT6+EK/FcUao3J9cR1ULk8O
R+B8bzAfBgNVHSMEGDAWgBTdaxyfosffV2MNwGBSPxiyVDVagzANBgkqhkiG9w0B
AQsFAAOCAQEAPD15s94P3TBrQd8ULW5z/iLJA1I2ztDfqzCPC758jH0Dgw/4UDeO
WuRN3/8n3MGOz1tl5VPWwvOuD+htdllMgDfa5F906XdIIWjsMbEA0xdg8XOJ7ARt
TssGG/+M43bf7vdsqCO+I1lnzwUhEOjSAFZurQbMdwOVNvVXlbniUYOV5R2dtCCJ
QvkeCnuZcwgZ6vzuy1t7AeO4uEgQN8PnDWhVqBZmXlnBrDehYNDzy/ZSuuUj6Cwm
JTq8b7wcc2/wBNMX26ClMS/OZ8MqWrkc2KDekWl6NsHFKIilWvQfdVT60rbIcWE/
L/OW0EEqvQGwJjWgdTrhxKlQx380brM7pg==
-----END CERTIFICATE-----
