Certificate:
    Data:
        Version: 3 (0x2)
        Serial Number: 1 (0x1)
        Signature Algorithm: sha256WithRSAEncryption
        Issuer: C=GL, ST=New World, L=Raftel, O=Straw Hat Networking/emailAddress=ca@strawhat.com, CN=ca.strawhat.com
        Validity
            Not Before: Nov 30 10:28:28 2023 GMT
            Not After : Jan 29 10:28:28 2024 GMT
        Subject: C=GL, ST=New World, O=Straw Hat Networking, CN=radius.strawhat.com/emailAddress=radius@strawhat.com
        Subject Public Key Info:
            Public Key Algorithm: rsaEncryption
                Public-Key: (2048 bit)
                Modulus:
                    00:b4:98:1c:45:b2:51:04:15:3e:1e:30:70:0e:3f:
                    c6:f8:2a:a0:c9:de:aa:7d:5a:65:3d:e8:34:ba:b8:
                    01:18:ef:7c:4a:14:ec:de:7f:78:a4:bd:4b:e6:10:
                    cd:3b:a7:ed:49:e9:00:47:3b:e3:70:e8:55:07:78:
                    22:7a:16:06:01:9c:99:28:af:a6:35:33:f6:a0:12:
                    a6:37:b9:3e:f9:15:6f:a2:b4:e1:eb:2b:73:af:a5:
                    ad:59:8e:e2:3d:01:ae:c0:f1:f7:1e:fc:bf:5a:4f:
                    71:62:6d:0c:2e:9d:06:27:1f:a1:72:69:49:1d:50:
                    4d:6b:8b:18:07:7f:af:13:f4:86:18:6d:9e:9d:3a:
                    7c:9d:ad:e8:1f:82:42:54:bb:7f:8f:4a:60:0e:18:
                    5a:72:5b:38:27:6b:43:31:6c:92:78:44:e7:9a:65:
                    70:06:04:78:78:c1:02:ea:25:9d:71:f1:8d:b8:65:
                    3c:ef:e1:59:d8:75:a3:18:99:57:bc:0d:3b:0d:d6:
                    01:2e:98:bc:57:e0:2a:79:b3:18:87:b5:31:c9:0a:
                    da:28:11:9a:ec:0b:f9:4e:09:e1:6d:22:f5:bb:29:
                    1c:61:a0:62:72:50:41:ff:02:84:fc:ef:1b:46:63:
                    6b:71:bb:80:d1:61:46:42:5d:d0:ed:6e:6a:17:4c:
                    ae:37
                Exponent: 65537 (0x10001)
        X509v3 extensions:
            X509v3 Extended Key Usage: 
                TLS Web Server Authentication
            X509v3 CRL Distribution Points: 
                Full Name:
                  URI:http://www.example.com/example_ca.crl
            X509v3 Certificate Policies: 
                Policy: 1.3.6.1.4.1.40808.1.3.2
            X509v3 Subject Key Identifier: 
                4C:08:CD:39:C2:65:4A:F8:4D:A8:9C:8D:0C:A2:F5:8D:3E:8B:FB:AF
            X509v3 Authority Key Identifier: 
                97:5D:60:BA:2C:90:6C:54:6B:9A:3A:46:1E:37:64:AC:7D:1D:56:E4
    Signature Algorithm: sha256WithRSAEncryption
    Signature Value:
        4c:2a:85:39:40:b5:8b:a9:d9:46:4b:3e:8b:98:4d:46:63:92:
        9c:d0:6a:bb:e4:7f:b2:4f:dd:38:9c:74:36:a3:68:54:d4:0e:
        8f:55:08:d7:3d:04:8e:2c:32:2b:e1:3c:4f:55:fb:6a:a9:13:
        a4:9a:65:2f:3b:ef:5f:31:79:6c:0b:b4:82:28:7b:dc:b6:7c:
        12:72:b8:2a:46:b9:df:ad:0b:02:76:3a:c4:3c:b4:04:dc:79:
        df:64:58:7d:2a:67:69:85:e9:fa:09:fc:d3:25:c7:14:d4:8b:
        42:88:3d:57:fd:9f:b6:68:ee:c8:5f:2b:b3:54:68:e4:33:5f:
        85:ee:82:5a:10:13:35:f4:f4:9e:27:75:bd:5c:76:3e:85:6b:
        4e:ea:78:7c:92:9f:9a:2f:d0:93:8e:93:e7:f7:11:7c:17:d6:
        ee:06:53:f1:17:f5:25:f5:35:a1:fe:1d:6b:4c:70:34:0d:7f:
        33:57:96:de:3c:08:69:01:44:09:6c:e8:73:fd:3e:81:49:d4:
        b1:0a:4d:4f:7a:c9:91:92:31:5e:f9:41:d3:ac:ca:87:4d:60:
        c4:12:ac:6e:33:51:b5:b1:dc:21:eb:19:73:39:37:ee:39:d9:
        2a:78:dc:62:6b:51:df:9b:91:1c:35:6c:e9:b9:e1:f2:0e:40:
        45:7e:94:45
-----BEGIN CERTIFICATE-----
MIIENTCCAx2gAwIBAgIBATANBgkqhkiG9w0BAQsFADCBizELMAkGA1UEBhMCR0wx
EjAQBgNVBAgMCU5ldyBXb3JsZDEPMA0GA1UEBwwGUmFmdGVsMR0wGwYDVQQKDBRT
dHJhdyBIYXQgTmV0d29ya2luZzEeMBwGCSqGSIb3DQEJARYPY2FAc3RyYXdoYXQu
Y29tMRgwFgYDVQQDDA9jYS5zdHJhd2hhdC5jb20wHhcNMjMxMTMwMTAyODI4WhcN
MjQwMTI5MTAyODI4WjCBgjELMAkGA1UEBhMCR0wxEjAQBgNVBAgMCU5ldyBXb3Js
ZDEdMBsGA1UECgwUU3RyYXcgSGF0IE5ldHdvcmtpbmcxHDAaBgNVBAMME3JhZGl1
cy5zdHJhd2hhdC5jb20xIjAgBgkqhkiG9w0BCQEWE3JhZGl1c0BzdHJhd2hhdC5j
b20wggEiMA0GCSqGSIb3DQEBAQUAA4IBDwAwggEKAoIBAQC0mBxFslEEFT4eMHAO
P8b4KqDJ3qp9WmU96DS6uAEY73xKFOzef3ikvUvmEM07p+1J6QBHO+Nw6FUHeCJ6
FgYBnJkor6Y1M/agEqY3uT75FW+itOHrK3Ovpa1ZjuI9Aa7A8fce/L9aT3FibQwu
nQYnH6FyaUkdUE1rixgHf68T9IYYbZ6dOnydregfgkJUu3+PSmAOGFpyWzgna0Mx
bJJ4ROeaZXAGBHh4wQLqJZ1x8Y24ZTzv4VnYdaMYmVe8DTsN1gEumLxX4Cp5sxiH
tTHJCtooEZrsC/lOCeFtIvW7KRxhoGJyUEH/AoT87xtGY2txu4DRYUZCXdDtbmoX
TK43AgMBAAGjgaowgacwEwYDVR0lBAwwCgYIKwYBBQUHAwEwNgYDVR0fBC8wLTAr
oCmgJ4YlaHR0cDovL3d3dy5leGFtcGxlLmNvbS9leGFtcGxlX2NhLmNybDAYBgNV
HSAEETAPMA0GCysGAQQBgr5oAQMCMB0GA1UdDgQWBBRMCM05wmVK+E2onI0MovWN
Pov7rzAfBgNVHSMEGDAWgBSXXWC6LJBsVGuaOkYeN2SsfR1W5DANBgkqhkiG9w0B
AQsFAAOCAQEATCqFOUC1i6nZRks+i5hNRmOSnNBqu+R/sk/dOJx0NqNoVNQOj1UI
1z0EjiwyK+E8T1X7aqkTpJplLzvvXzF5bAu0gih73LZ8EnK4Kka5360LAnY6xDy0
BNx532RYfSpnaYXp+gn80yXHFNSLQog9V/2ftmjuyF8rs1Ro5DNfhe6CWhATNfT0
nid1vVx2PoVrTup4fJKfmi/Qk46T5/cRfBfW7gZT8Rf1JfU1of4da0xwNA1/M1eW
3jwIaQFECWzoc/0+gUnUsQpNT3rJkZIxXvlB06zKh01gxBKsbjNRtbHcIesZczk3
7jnZKnjcYmtR35uRHDVs6bnh8g5ARX6URQ==
-----END CERTIFICATE-----
