Certificate:
    Data:
        Version: 3 (0x2)
        Serial Number: 1 (0x1)
        Signature Algorithm: sha256WithRSAEncryption
        Issuer: C=FR, ST=Radius, L=Somewhere, O=Example Inc./emailAddress=admin@example.org, CN=Example Certificate Authority
        Validity
            Not Before: Nov 28 17:39:37 2023 GMT
            Not After : Jan 27 17:39:37 2024 GMT
        Subject: C=FR, ST=Radius, O=Example Inc., CN=Example Server Certificate/emailAddress=admin@example.org
        Subject Public Key Info:
            Public Key Algorithm: rsaEncryption
                Public-Key: (2048 bit)
                Modulus:
                    00:c5:3c:9b:40:5c:55:6f:5d:76:13:9f:e5:34:e0:
                    f2:c3:65:06:0f:2c:eb:79:78:21:a3:c5:a4:d4:18:
                    5b:cb:cc:aa:81:4b:3a:55:59:7a:50:59:f5:90:6b:
                    43:d8:a0:72:31:16:a8:01:cb:23:f7:3a:c6:8b:79:
                    44:1d:36:37:f0:cf:01:99:51:b0:b4:fa:fb:82:5f:
                    8f:9d:c5:e4:a7:80:ab:2f:81:14:26:18:27:28:a5:
                    f2:a9:0a:dd:9a:42:f6:a3:bb:89:b7:47:d4:68:69:
                    ba:b0:58:0d:64:72:5d:51:3c:a6:cc:2a:bf:ce:bf:
                    90:e2:d5:46:91:fc:4d:56:41:45:9d:38:b4:72:6a:
                    82:ed:07:79:c1:1d:87:21:99:0d:5d:12:17:98:54:
                    d6:10:8f:a0:6b:48:c3:cd:0a:39:c7:c5:0f:27:f9:
                    98:86:7e:99:3e:05:ef:f7:a0:21:2a:91:b8:e2:86:
                    15:ab:5a:95:13:12:c7:34:dc:d6:ac:89:98:d0:f5:
                    f0:c2:11:a6:19:cd:77:1e:c5:2b:65:f6:2a:17:74:
                    8d:c0:b2:fd:ca:85:29:97:de:4b:9e:5c:20:53:d6:
                    15:17:60:a7:93:9f:9c:94:14:ed:2b:15:82:8c:c0:
                    8a:ae:f0:ed:8e:e2:c4:1f:8a:77:2c:4f:97:d5:89:
                    7b:6f
                Exponent: 65537 (0x10001)
        X509v3 extensions:
            X509v3 Extended Key Usage: 
                TLS Web Server Authentication
            X509v3 CRL Distribution Points: 
                Full Name:
                  URI:http://www.example.com/example_ca.crl
            X509v3 Certificate Policies: 
                Policy: 1.3.6.1.4.1.40808.1.3.2
            X509v3 Subject Key Identifier: 
                B7:FA:D2:55:19:02:3C:E2:6C:C7:C9:A9:FC:DA:C3:28:62:10:6A:46
            X509v3 Authority Key Identifier: 
                E1:3E:04:AE:75:2D:30:9A:8D:CD:51:E7:49:4B:23:94:36:BC:A0:2B
    Signature Algorithm: sha256WithRSAEncryption
    Signature Value:
        58:70:d9:1e:51:da:85:4d:7e:26:49:71:bd:62:ac:db:e0:9b:
        8a:ec:08:31:03:eb:ad:21:05:4b:2e:ba:89:9e:19:1e:f2:38:
        47:19:24:fe:c7:ac:e9:f3:9f:a0:8d:5f:e6:54:d3:9e:21:c5:
        a3:02:db:af:d4:3b:90:1e:7c:96:16:09:48:ff:71:38:5d:56:
        99:6c:48:fc:89:22:47:15:21:10:25:c8:89:83:95:c1:df:06:
        9c:ac:2f:3e:4e:fa:9e:06:12:ae:20:aa:85:d8:2b:a0:b1:f9:
        8f:d7:8d:64:e2:8a:8d:9e:33:47:6c:94:42:f0:46:ff:16:f8:
        9e:d2:0d:ef:70:60:b1:74:6e:2b:51:4f:c8:e3:47:af:a7:46:
        9e:14:28:c7:e9:da:29:5d:ca:88:29:fa:6d:1d:4f:e4:4d:fb:
        2f:5d:c7:8f:f4:c9:fe:f0:b0:d9:fd:e5:31:39:64:50:f7:fc:
        bb:4e:db:60:d3:18:44:7a:fe:89:88:11:f2:b8:53:16:67:e3:
        e1:a7:05:af:22:a0:87:1c:0b:11:5f:3b:8a:d1:d0:7a:7a:9f:
        7f:f0:95:e7:91:9a:be:ad:87:2b:19:f0:c6:4e:bb:20:6e:63:
        d8:1f:57:09:5e:b6:da:23:fc:de:87:01:f5:2a:16:24:e9:a2:
        c7:b7:ad:01
-----BEGIN CERTIFICATE-----
MIIENjCCAx6gAwIBAgIBATANBgkqhkiG9w0BAQsFADCBkzELMAkGA1UEBhMCRlIx
DzANBgNVBAgMBlJhZGl1czESMBAGA1UEBwwJU29tZXdoZXJlMRUwEwYDVQQKDAxF
eGFtcGxlIEluYy4xIDAeBgkqhkiG9w0BCQEWEWFkbWluQGV4YW1wbGUub3JnMSYw
JAYDVQQDDB1FeGFtcGxlIENlcnRpZmljYXRlIEF1dGhvcml0eTAeFw0yMzExMjgx
NzM5MzdaFw0yNDAxMjcxNzM5MzdaMHwxCzAJBgNVBAYTAkZSMQ8wDQYDVQQIDAZS
YWRpdXMxFTATBgNVBAoMDEV4YW1wbGUgSW5jLjEjMCEGA1UEAwwaRXhhbXBsZSBT
ZXJ2ZXIgQ2VydGlmaWNhdGUxIDAeBgkqhkiG9w0BCQEWEWFkbWluQGV4YW1wbGUu
b3JnMIIBIjANBgkqhkiG9w0BAQEFAAOCAQ8AMIIBCgKCAQEAxTybQFxVb112E5/l
NODyw2UGDyzreXgho8Wk1Bhby8yqgUs6VVl6UFn1kGtD2KByMRaoAcsj9zrGi3lE
HTY38M8BmVGwtPr7gl+PncXkp4CrL4EUJhgnKKXyqQrdmkL2o7uJt0fUaGm6sFgN
ZHJdUTymzCq/zr+Q4tVGkfxNVkFFnTi0cmqC7Qd5wR2HIZkNXRIXmFTWEI+ga0jD
zQo5x8UPJ/mYhn6ZPgXv96AhKpG44oYVq1qVExLHNNzWrImY0PXwwhGmGc13HsUr
ZfYqF3SNwLL9yoUpl95LnlwgU9YVF2Cnk5+clBTtKxWCjMCKrvDtjuLEH4p3LE+X
1Yl7bwIDAQABo4GqMIGnMBMGA1UdJQQMMAoGCCsGAQUFBwMBMDYGA1UdHwQvMC0w
K6ApoCeGJWh0dHA6Ly93d3cuZXhhbXBsZS5jb20vZXhhbXBsZV9jYS5jcmwwGAYD
VR0gBBEwDzANBgsrBgEEAYK+aAEDAjAdBgNVHQ4EFgQUt/rSVRkCPOJsx8mp/NrD
KGIQakYwHwYDVR0jBBgwFoAU4T4ErnUtMJqNzVHnSUsjlDa8oCswDQYJKoZIhvcN
AQELBQADggEBAFhw2R5R2oVNfiZJcb1irNvgm4rsCDED660hBUsuuomeGR7yOEcZ
JP7HrOnzn6CNX+ZU054hxaMC26/UO5AefJYWCUj/cThdVplsSPyJIkcVIRAlyImD
lcHfBpysLz5O+p4GEq4gqoXYK6Cx+Y/XjWTiio2eM0dslELwRv8W+J7SDe9wYLF0
bitRT8jjR6+nRp4UKMfp2ildyogp+m0dT+RN+y9dx4/0yf7wsNn95TE5ZFD3/LtO
22DTGER6/omIEfK4UxZn4+GnBa8ioIccCxFfO4rR0Hp6n3/wleeRmr6thysZ8MZO
uyBuY9gfVwlettoj/N6HAfUqFiTpose3rQE=
-----END CERTIFICATE-----
