Certificate:
    Data:
        Version: 3 (0x2)
        Serial Number: 1 (0x1)
        Signature Algorithm: sha256WithRSAEncryption
        Issuer: C=GL, ST=New World, L=Raftel, O=Straw Hat Networking/emailAddress=ca@strawhat.com, CN=ca.strawhat.com
        Validity
            Not Before: Nov 30 10:33:14 2023 GMT
            Not After : Jan 29 10:33:14 2024 GMT
        Subject: C=GL, ST=New World, O=Straw Hat Networking, CN=radius.strawhat.com/emailAddress=radius@strawhat.com
        Subject Public Key Info:
            Public Key Algorithm: rsaEncryption
                Public-Key: (2048 bit)
                Modulus:
                    00:b3:fc:97:3f:96:6b:99:3b:0a:65:a7:a2:0a:08:
                    d4:cb:54:e5:a5:0a:3c:50:0d:07:34:97:99:73:ca:
                    93:b8:48:62:e4:0a:38:28:e5:10:bc:e7:e7:af:c4:
                    a0:8d:61:b7:59:12:10:3b:00:4c:c1:b3:ca:66:d4:
                    9b:d5:4a:d9:38:c0:8f:e7:8e:6e:27:2e:a4:cb:99:
                    47:95:fa:bf:d0:6a:3b:9c:4a:ff:7f:54:c1:68:8d:
                    93:3d:f8:4e:7f:6f:84:a5:de:a6:1b:06:72:fd:a4:
                    75:35:81:2e:df:a7:64:35:82:aa:41:e2:66:02:dc:
                    c3:fb:8c:34:38:a4:f9:8c:7f:fe:6b:a1:7b:23:61:
                    ee:cf:1b:09:df:fb:86:a0:ab:7b:18:53:fc:74:b5:
                    b4:7d:4d:bc:3d:d5:3a:25:37:2c:05:92:9c:4d:eb:
                    ba:81:2e:d2:00:cb:0b:03:37:d9:9d:c7:b7:ed:d0:
                    3e:19:93:cd:a9:80:20:b7:27:62:6e:34:11:d3:3d:
                    ef:12:c2:35:5f:ee:7c:55:03:2b:e4:88:60:9b:92:
                    3b:d4:3b:65:1f:71:9f:70:72:90:cf:dc:b5:c3:0b:
                    1f:cd:ae:c4:4b:c9:00:6d:be:05:53:65:db:43:9a:
                    97:a3:1c:e5:d5:74:53:0f:75:9e:ac:2c:93:83:1b:
                    c8:87
                Exponent: 65537 (0x10001)
        X509v3 extensions:
            X509v3 Extended Key Usage: 
                TLS Web Server Authentication
            X509v3 CRL Distribution Points: 
                Full Name:
                  URI:http://www.example.com/example_ca.crl
            X509v3 Certificate Policies: 
                Policy: 1.3.6.1.4.1.40808.1.3.2
            X509v3 Subject Key Identifier: 
                79:C4:CD:BE:9C:79:71:AD:30:10:4B:DA:6C:DB:B2:D3:11:A8:E0:06
            X509v3 Authority Key Identifier: 
                30:D9:3B:28:4B:66:79:64:68:F8:9D:57:B0:DD:0B:C2:5F:38:2F:D2
    Signature Algorithm: sha256WithRSAEncryption
    Signature Value:
        28:32:2b:fd:13:95:5a:ec:4e:f9:07:a2:9e:ce:21:fd:20:f8:
        04:7b:71:80:af:35:0e:71:63:ef:da:83:ab:9f:78:f0:04:7b:
        9f:71:a2:f0:b2:b0:bf:fd:27:ef:24:62:4b:5f:17:35:78:85:
        ba:5e:cf:ef:a4:28:84:df:23:12:32:54:a7:62:e2:b7:75:be:
        0b:e5:55:fe:25:27:83:2a:32:9e:26:bf:29:90:1a:43:e6:23:
        8c:e7:c4:ee:c8:c5:09:3c:19:18:6a:e5:3f:ff:21:d8:c7:c4:
        1c:c4:e1:04:24:39:65:bf:03:39:52:67:44:e6:7d:22:c1:19:
        2b:b8:f1:e8:30:b1:97:c3:6b:7a:57:5c:51:88:24:81:47:10:
        fd:fa:e4:b0:11:15:7a:b4:ec:dd:a1:80:dc:b1:fb:5e:8c:bd:
        15:06:c8:3f:6d:26:0d:4d:47:49:7f:e8:10:5a:c7:b0:90:d4:
        f1:69:3f:5b:84:f4:c2:c8:31:a9:9c:05:d8:45:bc:e3:2a:1f:
        11:dc:2c:e8:bc:b6:ff:d3:bf:b6:49:8d:cc:30:b0:7e:2f:9c:
        a5:23:e0:32:e1:a0:58:1d:c8:55:77:1c:3a:e6:cd:19:a3:9f:
        d6:d0:5d:ec:df:e6:15:c8:01:cb:79:be:23:18:fe:04:43:24:
        7e:15:8d:75
-----BEGIN CERTIFICATE-----
MIIENTCCAx2gAwIBAgIBATANBgkqhkiG9w0BAQsFADCBizELMAkGA1UEBhMCR0wx
EjAQBgNVBAgMCU5ldyBXb3JsZDEPMA0GA1UEBwwGUmFmdGVsMR0wGwYDVQQKDBRT
dHJhdyBIYXQgTmV0d29ya2luZzEeMBwGCSqGSIb3DQEJARYPY2FAc3RyYXdoYXQu
Y29tMRgwFgYDVQQDDA9jYS5zdHJhd2hhdC5jb20wHhcNMjMxMTMwMTAzMzE0WhcN
MjQwMTI5MTAzMzE0WjCBgjELMAkGA1UEBhMCR0wxEjAQBgNVBAgMCU5ldyBXb3Js
ZDEdMBsGA1UECgwUU3RyYXcgSGF0IE5ldHdvcmtpbmcxHDAaBgNVBAMME3JhZGl1
cy5zdHJhd2hhdC5jb20xIjAgBgkqhkiG9w0BCQEWE3JhZGl1c0BzdHJhd2hhdC5j
b20wggEiMA0GCSqGSIb3DQEBAQUAA4IBDwAwggEKAoIBAQCz/Jc/lmuZOwplp6IK
CNTLVOWlCjxQDQc0l5lzypO4SGLkCjgo5RC85+evxKCNYbdZEhA7AEzBs8pm1JvV
Stk4wI/njm4nLqTLmUeV+r/QajucSv9/VMFojZM9+E5/b4Sl3qYbBnL9pHU1gS7f
p2Q1gqpB4mYC3MP7jDQ4pPmMf/5roXsjYe7PGwnf+4agq3sYU/x0tbR9Tbw91Tol
NywFkpxN67qBLtIAywsDN9mdx7ft0D4Zk82pgCC3J2JuNBHTPe8SwjVf7nxVAyvk
iGCbkjvUO2UfcZ9wcpDP3LXDCx/NrsRLyQBtvgVTZdtDmpejHOXVdFMPdZ6sLJOD
G8iHAgMBAAGjgaowgacwEwYDVR0lBAwwCgYIKwYBBQUHAwEwNgYDVR0fBC8wLTAr
oCmgJ4YlaHR0cDovL3d3dy5leGFtcGxlLmNvbS9leGFtcGxlX2NhLmNybDAYBgNV
HSAEETAPMA0GCysGAQQBgr5oAQMCMB0GA1UdDgQWBBR5xM2+nHlxrTAQS9ps27LT
EajgBjAfBgNVHSMEGDAWgBQw2TsoS2Z5ZGj4nVew3QvCXzgv0jANBgkqhkiG9w0B
AQsFAAOCAQEAKDIr/ROVWuxO+Qeins4h/SD4BHtxgK81DnFj79qDq5948AR7n3Gi
8LKwv/0n7yRiS18XNXiFul7P76QohN8jEjJUp2Lit3W+C+VV/iUngyoynia/KZAa
Q+YjjOfE7sjFCTwZGGrlP/8h2MfEHMThBCQ5Zb8DOVJnROZ9IsEZK7jx6DCxl8Nr
eldcUYgkgUcQ/frksBEVerTs3aGA3LH7Xoy9FQbIP20mDU1HSX/oEFrHsJDU8Wk/
W4T0wsgxqZwF2EW84yofEdws6Ly2/9O/tkmNzDCwfi+cpSPgMuGgWB3IVXccOubN
GaOf1tBd7N/mFcgBy3m+Ixj+BEMkfhWNdQ==
-----END CERTIFICATE-----
