Certificate:
    Data:
        Version: 3 (0x2)
        Serial Number: 2 (0x2)
        Signature Algorithm: sha256WithRSAEncryption
        Issuer: C=GL, ST=New World, L=Raftel, O=Straw Hat Networking/emailAddress=ca@strawhat.com, CN=ca.strawhat.com
        Validity
            Not Before: Nov 30 16:59:16 2023 GMT
            Not After : Jan 29 16:59:16 2024 GMT
        Subject: C=GL, ST=New World, O=Straw Hat Networking, CN=luffy@strawhat.com/emailAddress=luffy@strawhat.com
        Subject Public Key Info:
            Public Key Algorithm: rsaEncryption
                Public-Key: (2048 bit)
                Modulus:
                    00:c5:59:4a:ab:a1:b7:c9:99:f4:b9:d2:04:b1:3c:
                    1b:29:e3:a0:1b:21:ac:d0:aa:13:06:89:3c:81:3a:
                    cd:29:1c:d0:3c:8d:f3:bf:f0:c8:5b:03:7c:c5:c0:
                    0d:da:72:58:2e:a2:0f:bb:24:c8:1a:99:f0:5b:56:
                    d9:f1:dd:02:a9:b2:5e:37:38:11:8d:16:ba:29:f4:
                    bb:23:d3:41:76:a0:c4:8f:1f:3e:83:97:c3:d3:4c:
                    d7:73:17:e6:20:e6:cb:13:0f:cf:08:bc:b7:e1:47:
                    71:5f:5c:36:6d:b4:61:8e:6b:f1:c5:76:3a:82:f6:
                    8c:c6:8b:e5:fc:f5:ad:d4:fe:2c:e3:1a:3e:24:b9:
                    38:16:a2:a8:f9:be:92:83:c4:bd:b1:90:0c:9a:38:
                    84:13:d0:d8:59:c2:4a:a2:39:a6:f1:90:09:a1:02:
                    df:2c:71:b6:f2:08:84:58:5f:bc:e2:2a:8a:c6:0d:
                    89:a1:a3:a8:20:80:26:31:65:a2:4e:3e:b0:09:ca:
                    98:38:a4:4f:59:42:b9:0d:fb:55:cd:12:95:31:ff:
                    c0:79:0a:3d:de:f1:cb:6e:67:ff:31:8d:84:b0:24:
                    3e:b5:7c:b8:7a:3a:48:73:bc:ca:76:0b:fb:2e:24:
                    6a:77:9e:92:18:ab:89:3f:b0:69:67:9b:b8:c5:15:
                    b3:a7
                Exponent: 65537 (0x10001)
        X509v3 extensions:
            X509v3 Extended Key Usage: 
                TLS Web Client Authentication
            X509v3 CRL Distribution Points: 
                Full Name:
                  URI:http://www.example.com/example_ca.crl
            X509v3 Subject Key Identifier: 
                41:06:14:E4:73:9E:B8:22:F2:B0:79:EE:38:2E:53:08:05:50:2E:8F
            X509v3 Authority Key Identifier: 
                14:7C:ED:C6:06:6E:0D:23:C9:88:80:94:DB:EC:EE:EB:39:B5:E7:BC
    Signature Algorithm: sha256WithRSAEncryption
    Signature Value:
        54:e4:7a:6d:86:c7:65:e2:86:ca:19:f4:66:13:03:a2:a6:f0:
        00:34:49:ba:17:ad:08:0c:b9:f5:19:be:c4:54:15:1a:99:ee:
        df:47:93:d3:17:f3:b3:4e:ad:3a:47:41:3a:d5:09:06:de:e7:
        d1:6f:fe:4d:ec:6a:a1:fd:e7:4c:df:f1:a0:01:b0:a3:f9:25:
        4d:da:2d:a1:a3:9a:a5:50:d9:00:3e:5a:b6:e9:47:f1:50:a3:
        cb:2a:97:97:07:65:f4:93:3a:c8:d5:c2:b9:b1:74:72:1a:0d:
        b6:f9:69:af:5e:29:49:df:17:4d:a1:85:a5:0c:d4:9e:4e:51:
        8e:e6:8a:3f:8b:06:0e:7a:3d:5b:1b:44:44:da:82:a6:c9:cb:
        03:e3:b0:e2:f9:05:30:d3:ad:54:95:94:50:ff:63:37:ba:d1:
        d4:a9:20:1c:60:a8:2c:7d:b1:e4:4c:3f:16:cc:b5:ff:d2:f8:
        20:07:46:e8:4f:06:fe:c9:8c:41:d8:40:56:b1:8c:e5:b0:dc:
        1a:18:b3:25:d9:4a:79:8c:30:e0:f7:1c:92:e5:3b:87:ab:dc:
        dc:1c:4c:ec:22:19:cb:2b:9b:bd:00:a6:c5:53:51:db:9e:1d:
        0f:db:8a:39:23:5b:8f:ed:1d:e9:0d:fa:0b:40:52:7e:a5:59:
        88:44:b9:d7
-----BEGIN CERTIFICATE-----
MIIEGTCCAwGgAwIBAgIBAjANBgkqhkiG9w0BAQsFADCBizELMAkGA1UEBhMCR0wx
EjAQBgNVBAgMCU5ldyBXb3JsZDEPMA0GA1UEBwwGUmFmdGVsMR0wGwYDVQQKDBRT
dHJhdyBIYXQgTmV0d29ya2luZzEeMBwGCSqGSIb3DQEJARYPY2FAc3RyYXdoYXQu
Y29tMRgwFgYDVQQDDA9jYS5zdHJhd2hhdC5jb20wHhcNMjMxMTMwMTY1OTE2WhcN
MjQwMTI5MTY1OTE2WjCBgDELMAkGA1UEBhMCR0wxEjAQBgNVBAgMCU5ldyBXb3Js
ZDEdMBsGA1UECgwUU3RyYXcgSGF0IE5ldHdvcmtpbmcxGzAZBgNVBAMMEmx1ZmZ5
QHN0cmF3aGF0LmNvbTEhMB8GCSqGSIb3DQEJARYSbHVmZnlAc3RyYXdoYXQuY29t
MIIBIjANBgkqhkiG9w0BAQEFAAOCAQ8AMIIBCgKCAQEAxVlKq6G3yZn0udIEsTwb
KeOgGyGs0KoTBok8gTrNKRzQPI3zv/DIWwN8xcAN2nJYLqIPuyTIGpnwW1bZ8d0C
qbJeNzgRjRa6KfS7I9NBdqDEjx8+g5fD00zXcxfmIObLEw/PCLy34UdxX1w2bbRh
jmvxxXY6gvaMxovl/PWt1P4s4xo+JLk4FqKo+b6Sg8S9sZAMmjiEE9DYWcJKojmm
8ZAJoQLfLHG28giEWF+84iqKxg2JoaOoIIAmMWWiTj6wCcqYOKRPWUK5DftVzRKV
Mf/AeQo93vHLbmf/MY2EsCQ+tXy4ejpIc7zKdgv7LiRqd56SGKuJP7BpZ5u4xRWz
pwIDAQABo4GQMIGNMBMGA1UdJQQMMAoGCCsGAQUFBwMCMDYGA1UdHwQvMC0wK6Ap
oCeGJWh0dHA6Ly93d3cuZXhhbXBsZS5jb20vZXhhbXBsZV9jYS5jcmwwHQYDVR0O
BBYEFEEGFORznrgi8rB57jguUwgFUC6PMB8GA1UdIwQYMBaAFBR87cYGbg0jyYiA
lNvs7us5tee8MA0GCSqGSIb3DQEBCwUAA4IBAQBU5Hpthsdl4obKGfRmEwOipvAA
NEm6F60IDLn1Gb7EVBUame7fR5PTF/OzTq06R0E61QkG3ufRb/5N7Gqh/edM3/Gg
AbCj+SVN2i2ho5qlUNkAPlq26UfxUKPLKpeXB2X0kzrI1cK5sXRyGg22+WmvXilJ
3xdNoYWlDNSeTlGO5oo/iwYOej1bG0RE2oKmycsD47Di+QUw061UlZRQ/2M3utHU
qSAcYKgsfbHkTD8WzLX/0vggB0boTwb+yYxB2EBWsYzlsNwaGLMl2Up5jDDg9xyS
5TuHq9zcHEzsIhnLK5u9AKbFU1Hbnh0P24o5I1uP7R3pDfoLQFJ+pVmIRLnX
-----END CERTIFICATE-----
