Certificate:
    Data:
        Version: 3 (0x2)
        Serial Number: 2 (0x2)
        Signature Algorithm: sha256WithRSAEncryption
        Issuer: C=FR, ST=Radius, L=Somewhere, O=Example Inc./emailAddress=admin@example.org, CN=Example Certificate Authority
        Validity
            Not Before: Nov 28 17:39:37 2023 GMT
            Not After : Jan 27 17:39:37 2024 GMT
        Subject: C=FR, ST=Radius, O=Example Inc., CN=user@example.org/emailAddress=user@example.org
        Subject Public Key Info:
            Public Key Algorithm: rsaEncryption
                Public-Key: (2048 bit)
                Modulus:
                    00:ce:91:72:54:2c:76:9c:7d:0d:d7:52:80:d2:d2:
                    f4:4e:a3:81:6c:ca:04:3c:da:17:d2:15:37:96:cb:
                    36:75:e1:fe:75:38:f5:73:83:94:bb:7d:ff:4e:ec:
                    bb:b7:ce:5c:e1:9d:3d:ff:75:5d:8a:fa:4c:45:3f:
                    1f:e8:ed:78:ae:d4:a1:bd:f5:1f:29:f9:46:95:1f:
                    7c:c1:10:e2:fe:20:77:38:b6:7c:a6:16:2d:a2:a9:
                    80:d5:1d:33:2b:6b:e1:6c:d2:02:44:c7:8a:a1:c6:
                    5f:ed:31:f3:f5:e9:8e:61:e8:42:e5:61:5c:45:39:
                    a4:24:95:c2:54:5c:dd:e6:0c:ab:55:4b:0f:40:84:
                    a0:cf:2a:c1:6a:ed:1c:52:bf:b6:5b:5d:ca:0b:e1:
                    d2:ab:ed:79:1a:0d:c0:53:55:76:9f:0c:7d:0f:c3:
                    96:81:1e:3d:e0:74:49:a2:22:e3:5f:e2:c3:f3:1d:
                    79:b6:4e:d5:fd:ae:32:a3:c8:5c:e5:43:df:df:e1:
                    6f:5e:55:43:67:66:92:fb:65:40:70:eb:3f:48:40:
                    ea:06:f4:d4:1c:61:ab:83:e0:0c:e0:65:98:eb:c6:
                    fe:90:3b:23:2a:a9:28:b7:ab:6d:a5:6f:ba:8e:94:
                    58:96:4b:7e:5e:cf:c0:1a:00:dd:39:d8:15:fb:d8:
                    3d:67
                Exponent: 65537 (0x10001)
        X509v3 extensions:
            X509v3 Extended Key Usage: 
                TLS Web Client Authentication
            X509v3 CRL Distribution Points: 
                Full Name:
                  URI:http://www.example.com/example_ca.crl
            X509v3 Subject Key Identifier: 
                95:33:EA:3F:38:0A:55:E9:CE:1D:9A:9E:50:7C:97:A2:06:08:83:F1
            X509v3 Authority Key Identifier: 
                E1:3E:04:AE:75:2D:30:9A:8D:CD:51:E7:49:4B:23:94:36:BC:A0:2B
    Signature Algorithm: sha256WithRSAEncryption
    Signature Value:
        40:b5:b7:69:b5:28:92:2f:5d:08:26:f4:5f:d9:db:5d:6c:3b:
        df:cb:a6:ba:94:dd:bc:96:31:39:b5:f6:f4:53:bf:88:8b:7b:
        0e:ca:e7:2b:36:80:c1:c6:46:42:55:28:7a:c3:51:af:c0:03:
        9e:78:3f:4f:a0:95:36:fb:0e:1b:f4:3f:52:73:9f:6a:f3:ec:
        6a:a7:03:92:64:3a:2f:65:ba:74:41:7c:4d:36:19:55:9b:a3:
        26:17:a3:ff:a2:e6:bd:59:52:ce:c1:92:d3:73:81:7d:a2:e1:
        90:0d:ee:3f:f6:d5:8c:81:73:0a:e6:40:28:c8:24:21:ae:6f:
        ce:c9:37:25:96:3b:5b:30:7d:db:b4:bd:8f:b7:3a:08:f9:05:
        bb:46:2b:f5:d7:2e:24:9f:ce:47:05:ca:15:4a:6f:0b:f1:1a:
        83:cf:0e:eb:7a:b7:ba:31:b4:21:54:41:79:9c:d2:2e:3a:21:
        ed:51:40:14:31:c6:60:23:23:ca:02:81:a1:1d:da:e1:25:e6:
        df:71:ac:2a:59:24:ab:51:21:00:b8:10:89:f9:6c:b9:15:52:
        61:2c:81:52:14:13:a1:22:96:97:a9:e9:90:16:c5:f1:b6:10:
        69:3f:17:c0:ca:16:ed:fb:a1:df:e6:90:18:1d:36:73:7b:b6:
        fa:c1:13:22
-----BEGIN CERTIFICATE-----
MIIEETCCAvmgAwIBAgIBAjANBgkqhkiG9w0BAQsFADCBkzELMAkGA1UEBhMCRlIx
DzANBgNVBAgMBlJhZGl1czESMBAGA1UEBwwJU29tZXdoZXJlMRUwEwYDVQQKDAxF
eGFtcGxlIEluYy4xIDAeBgkqhkiG9w0BCQEWEWFkbWluQGV4YW1wbGUub3JnMSYw
JAYDVQQDDB1FeGFtcGxlIENlcnRpZmljYXRlIEF1dGhvcml0eTAeFw0yMzExMjgx
NzM5MzdaFw0yNDAxMjcxNzM5MzdaMHExCzAJBgNVBAYTAkZSMQ8wDQYDVQQIDAZS
YWRpdXMxFTATBgNVBAoMDEV4YW1wbGUgSW5jLjEZMBcGA1UEAwwQdXNlckBleGFt
cGxlLm9yZzEfMB0GCSqGSIb3DQEJARYQdXNlckBleGFtcGxlLm9yZzCCASIwDQYJ
KoZIhvcNAQEBBQADggEPADCCAQoCggEBAM6RclQsdpx9DddSgNLS9E6jgWzKBDza
F9IVN5bLNnXh/nU49XODlLt9/07su7fOXOGdPf91XYr6TEU/H+jteK7Uob31Hyn5
RpUffMEQ4v4gdzi2fKYWLaKpgNUdMytr4WzSAkTHiqHGX+0x8/XpjmHoQuVhXEU5
pCSVwlRc3eYMq1VLD0CEoM8qwWrtHFK/tltdygvh0qvteRoNwFNVdp8MfQ/DloEe
PeB0SaIi41/iw/MdebZO1f2uMqPIXOVD39/hb15VQ2dmkvtlQHDrP0hA6gb01Bxh
q4PgDOBlmOvG/pA7IyqpKLerbaVvuo6UWJZLfl7PwBoA3TnYFfvYPWcCAwEAAaOB
kDCBjTATBgNVHSUEDDAKBggrBgEFBQcDAjA2BgNVHR8ELzAtMCugKaAnhiVodHRw
Oi8vd3d3LmV4YW1wbGUuY29tL2V4YW1wbGVfY2EuY3JsMB0GA1UdDgQWBBSVM+o/
OApV6c4dmp5QfJeiBgiD8TAfBgNVHSMEGDAWgBThPgSudS0wmo3NUedJSyOUNryg
KzANBgkqhkiG9w0BAQsFAAOCAQEAQLW3abUoki9dCCb0X9nbXWw738umupTdvJYx
ObX29FO/iIt7DsrnKzaAwcZGQlUoesNRr8ADnng/T6CVNvsOG/Q/UnOfavPsaqcD
kmQ6L2W6dEF8TTYZVZujJhej/6LmvVlSzsGS03OBfaLhkA3uP/bVjIFzCuZAKMgk
Ia5vzsk3JZY7WzB927S9j7c6CPkFu0Yr9dcuJJ/ORwXKFUpvC/Eag88O63q3ujG0
IVRBeZzSLjoh7VFAFDHGYCMjygKBoR3a4SXm33GsKlkkq1EhALgQiflsuRVSYSyB
UhQToSKWl6npkBbF8bYQaT8XwMoW7fuh3+aQGB02c3u2+sETIg==
-----END CERTIFICATE-----
