Certificate:
    Data:
        Version: 3 (0x2)
        Serial Number: 2 (0x2)
        Signature Algorithm: sha256WithRSAEncryption
        Issuer: C=GL, ST=New World, L=Raftel, O=Straw Hat Networking/emailAddress=ca@strawhat.com, CN=ca.strawhat.com
        Validity
            Not Before: Dec 16 09:09:22 2023 GMT
            Not After : Feb 14 09:09:22 2024 GMT
        Subject: C=GL, ST=New World, O=Straw Hat Networking, CN=luffy@strawhat.com/emailAddress=luffy@strawhat.com
        Subject Public Key Info:
            Public Key Algorithm: rsaEncryption
                Public-Key: (2048 bit)
                Modulus:
                    00:c2:54:6b:e0:b8:3a:a3:ca:76:c4:3a:1d:65:62:
                    ad:00:47:66:fb:0d:35:9b:32:ed:48:4d:42:c3:c1:
                    24:78:9c:57:1f:4f:d9:3e:31:b8:56:53:f8:12:97:
                    a7:8c:3e:8b:6a:cb:d5:e5:c0:b0:6b:fc:50:5f:e5:
                    d6:8d:bc:96:c4:fb:7d:17:86:23:e7:51:c5:5d:35:
                    97:04:a4:7d:f0:c8:9c:5e:19:fc:e2:2c:78:2e:5f:
                    36:2c:fe:11:6b:7c:a1:e3:fb:34:20:ce:26:79:cd:
                    e8:89:c7:fe:aa:c2:ae:5f:e1:b5:63:af:2b:bd:24:
                    39:12:9c:7f:eb:d8:52:90:c6:0e:08:f8:a9:dc:76:
                    27:85:34:6c:e2:fa:f2:43:54:0b:5a:53:bd:be:da:
                    4b:bb:86:48:d1:05:7c:dd:0b:68:c6:26:88:6a:64:
                    b2:c6:2f:d2:a4:5d:91:8d:60:6f:56:e7:1f:30:12:
                    ed:92:dd:5e:ad:a5:68:03:a5:8f:13:e8:05:f7:c5:
                    c6:92:52:d3:8c:8a:20:31:08:e2:84:2d:1f:d4:7f:
                    08:e5:af:dc:2b:48:dd:b6:f5:e9:77:ae:fa:e5:81:
                    dd:08:60:2b:6d:8a:94:16:11:34:06:03:cd:10:8e:
                    79:0a:e7:89:9b:47:41:d6:49:0c:b1:e0:80:09:55:
                    a7:d1
                Exponent: 65537 (0x10001)
        X509v3 extensions:
            X509v3 Extended Key Usage: 
                TLS Web Client Authentication
            X509v3 CRL Distribution Points: 
                Full Name:
                  URI:http://www.strawhat.com/ca.crl
            X509v3 Subject Key Identifier: 
                5E:CE:22:D8:CA:91:46:DA:87:AA:DB:30:63:87:E4:3E:CF:B2:2D:99
            X509v3 Authority Key Identifier: 
                0A:93:78:F7:01:F4:60:F6:F6:C4:EA:F8:F5:01:7C:62:29:9A:26:AA
    Signature Algorithm: sha256WithRSAEncryption
    Signature Value:
        39:e6:ee:48:45:a7:25:a0:ad:c7:bb:fa:6c:e5:26:ab:4e:7f:
        4c:7c:2a:29:78:7d:c8:ba:e1:e8:c1:25:d7:94:d3:3f:1d:a8:
        2f:da:6c:9d:ea:78:cc:2a:55:7c:c7:e8:9d:69:6b:3a:91:01:
        bb:0b:89:3b:59:fd:e9:99:43:0e:ed:f3:55:fe:a5:70:f8:17:
        2d:ad:bb:18:06:4b:be:5d:0b:a6:cd:54:31:65:91:f0:c3:37:
        bc:b2:15:df:6d:28:a3:c0:46:2a:8a:5a:5a:3c:a5:1b:2e:30:
        50:38:20:9d:29:80:20:45:be:70:d5:e3:78:1d:6c:4e:b2:f3:
        81:9d:b5:57:62:ba:9e:a5:e4:6b:79:56:18:59:e4:e9:63:74:
        a9:ba:04:ea:d4:b7:8d:53:0f:19:97:53:b2:fa:21:0b:94:03:
        f3:ee:ad:e9:59:d6:fb:f2:30:67:1a:34:40:8d:05:7a:ec:7f:
        ac:0f:db:07:63:97:23:a0:46:b2:13:3f:b6:bb:1a:bc:3f:65:
        0e:3d:c0:a2:57:d0:fa:a9:c1:2a:f5:7a:b8:4a:ee:60:0e:f0:
        87:27:bc:22:c5:bf:5b:55:b1:d1:71:e3:9e:c5:ca:50:37:7f:
        48:de:6a:53:dc:d5:19:bc:e9:9e:7d:66:ed:4d:75:ef:f9:22:
        93:05:d5:60
-----BEGIN CERTIFICATE-----
MIIEEjCCAvqgAwIBAgIBAjANBgkqhkiG9w0BAQsFADCBizELMAkGA1UEBhMCR0wx
EjAQBgNVBAgMCU5ldyBXb3JsZDEPMA0GA1UEBwwGUmFmdGVsMR0wGwYDVQQKDBRT
dHJhdyBIYXQgTmV0d29ya2luZzEeMBwGCSqGSIb3DQEJARYPY2FAc3RyYXdoYXQu
Y29tMRgwFgYDVQQDDA9jYS5zdHJhd2hhdC5jb20wHhcNMjMxMjE2MDkwOTIyWhcN
MjQwMjE0MDkwOTIyWjCBgDELMAkGA1UEBhMCR0wxEjAQBgNVBAgMCU5ldyBXb3Js
ZDEdMBsGA1UECgwUU3RyYXcgSGF0IE5ldHdvcmtpbmcxGzAZBgNVBAMMEmx1ZmZ5
QHN0cmF3aGF0LmNvbTEhMB8GCSqGSIb3DQEJARYSbHVmZnlAc3RyYXdoYXQuY29t
MIIBIjANBgkqhkiG9w0BAQEFAAOCAQ8AMIIBCgKCAQEAwlRr4Lg6o8p2xDodZWKt
AEdm+w01mzLtSE1Cw8EkeJxXH0/ZPjG4VlP4EpenjD6LasvV5cCwa/xQX+XWjbyW
xPt9F4Yj51HFXTWXBKR98MicXhn84ix4Ll82LP4Ra3yh4/s0IM4mec3oicf+qsKu
X+G1Y68rvSQ5Epx/69hSkMYOCPip3HYnhTRs4vryQ1QLWlO9vtpLu4ZI0QV83Qto
xiaIamSyxi/SpF2RjWBvVucfMBLtkt1eraVoA6WPE+gF98XGklLTjIogMQjihC0f
1H8I5a/cK0jdtvXpd6765YHdCGArbYqUFhE0BgPNEI55CueJm0dB1kkMseCACVWn
0QIDAQABo4GJMIGGMBMGA1UdJQQMMAoGCCsGAQUFBwMCMC8GA1UdHwQoMCYwJKAi
oCCGHmh0dHA6Ly93d3cuc3RyYXdoYXQuY29tL2NhLmNybDAdBgNVHQ4EFgQUXs4i
2MqRRtqHqtswY4fkPs+yLZkwHwYDVR0jBBgwFoAUCpN49wH0YPb2xOr49QF8Yima
JqowDQYJKoZIhvcNAQELBQADggEBADnm7khFpyWgrce7+mzlJqtOf0x8Kil4fci6
4ejBJdeU0z8dqC/abJ3qeMwqVXzH6J1pazqRAbsLiTtZ/emZQw7t81X+pXD4Fy2t
uxgGS75dC6bNVDFlkfDDN7yyFd9tKKPARiqKWlo8pRsuMFA4IJ0pgCBFvnDV43gd
bE6y84GdtVdiup6l5Gt5VhhZ5OljdKm6BOrUt41TDxmXU7L6IQuUA/PurelZ1vvy
MGcaNECNBXrsf6wP2wdjlyOgRrITP7a7Grw/ZQ49wKJX0PqpwSr1erhK7mAO8Icn
vCLFv1tVsdFx457FylA3f0jealPc1Rm86Z59Zu1Nde/5IpMF1WA=
-----END CERTIFICATE-----
