Certificate:
    Data:
        Version: 3 (0x2)
        Serial Number: 1 (0x1)
        Signature Algorithm: sha256WithRSAEncryption
        Issuer: C=GL, ST=New World, L=Raftel, O=Straw Hat Networking/emailAddress=ca@strawhat.com, CN=ca.strawhat.com
        Validity
            Not Before: Nov 30 16:59:12 2023 GMT
            Not After : Jan 29 16:59:12 2024 GMT
        Subject: C=GL, ST=New World, O=Straw Hat Networking, CN=radius.strawhat.com/emailAddress=radius@strawhat.com
        Subject Public Key Info:
            Public Key Algorithm: rsaEncryption
                Public-Key: (2048 bit)
                Modulus:
                    00:d1:f6:73:2c:81:e6:9c:29:95:01:11:be:d7:b8:
                    bb:44:3f:9d:95:6f:b4:3a:a1:87:2f:06:47:85:99:
                    7a:6a:d7:0a:98:78:cc:89:50:5d:99:10:86:f1:be:
                    04:27:50:d7:4d:dd:42:65:32:79:a0:30:26:db:ce:
                    3f:63:a0:f2:44:21:16:43:0d:b5:8e:c2:d1:4e:4c:
                    9b:cf:24:56:00:40:e7:f9:84:b1:a7:6a:f9:0e:a7:
                    24:7c:39:37:a1:d3:c5:66:98:fa:bf:9e:44:50:51:
                    fb:63:d0:f3:f1:92:e1:67:0f:c3:e9:ec:8d:2c:67:
                    a1:68:87:33:e2:bb:f9:4d:b7:a9:b3:cb:e3:63:60:
                    88:f3:7a:64:84:51:40:11:6b:40:4f:c9:8c:6b:2a:
                    a5:ed:ab:d0:0c:fb:e0:00:ec:c8:bc:4f:ba:a9:b2:
                    a3:d3:7f:27:29:6e:2a:fb:a2:1a:87:3c:8f:00:37:
                    25:16:05:40:7d:9a:89:08:65:81:99:d7:b0:2f:5b:
                    a7:e2:83:76:63:49:95:0e:15:17:c4:ec:41:68:19:
                    71:17:98:eb:99:0d:2e:dd:4c:28:dd:76:e8:eb:25:
                    4d:d5:e2:ba:6b:f4:be:9c:18:fd:74:6d:f0:1d:55:
                    c2:6b:19:20:27:45:38:58:84:1b:cb:d1:62:f8:dc:
                    55:d9
                Exponent: 65537 (0x10001)
        X509v3 extensions:
            X509v3 Extended Key Usage: 
                TLS Web Server Authentication
            X509v3 CRL Distribution Points: 
                Full Name:
                  URI:http://www.example.com/example_ca.crl
            X509v3 Certificate Policies: 
                Policy: 1.3.6.1.4.1.40808.1.3.2
            X509v3 Subject Key Identifier: 
                56:10:D2:11:63:72:1F:31:07:36:65:3F:E3:4E:52:A6:E1:15:FC:45
            X509v3 Authority Key Identifier: 
                14:7C:ED:C6:06:6E:0D:23:C9:88:80:94:DB:EC:EE:EB:39:B5:E7:BC
    Signature Algorithm: sha256WithRSAEncryption
    Signature Value:
        70:3e:79:27:00:3b:e5:3f:72:1a:2e:e0:8b:5a:e6:57:12:d3:
        18:a5:94:6c:a5:e4:73:08:ac:8b:30:00:85:03:16:d2:b8:4c:
        0a:41:25:cc:e6:d4:19:be:75:0f:84:8f:9c:7b:2e:2b:03:23:
        12:68:a4:d0:72:44:63:f4:3a:5c:8d:bc:b6:85:46:d9:0f:b4:
        2b:00:8c:c7:25:d0:27:c6:35:9f:b3:74:7b:ce:80:11:20:6e:
        5c:f3:4c:d9:43:13:ca:cc:06:6c:74:5a:19:64:12:72:d2:82:
        97:50:13:dc:62:63:b0:08:f6:f7:41:2b:69:be:4d:f1:35:1b:
        21:24:2c:e6:df:1d:f8:66:27:ef:10:05:c5:f7:c4:aa:a6:ae:
        cb:0d:d2:73:88:0c:05:e9:bd:37:8e:0a:35:ab:f7:7c:5e:fa:
        e9:33:f8:d1:23:ff:fc:ca:a2:3e:68:4a:d2:f1:ec:20:c9:86:
        1d:4c:09:18:f8:25:9b:2d:0b:f8:0e:8a:e1:67:31:bb:0c:97:
        3b:f9:a4:a0:2d:38:20:74:d3:4f:3c:26:06:67:b6:67:2a:6a:
        c8:28:8c:3f:24:35:06:b9:5e:ad:f0:ba:26:13:7f:58:37:9b:
        58:3d:96:14:91:a0:5d:36:69:62:8c:c5:4b:72:9b:d6:75:13:
        71:05:bc:c3
-----BEGIN CERTIFICATE-----
MIIENTCCAx2gAwIBAgIBATANBgkqhkiG9w0BAQsFADCBizELMAkGA1UEBhMCR0wx
EjAQBgNVBAgMCU5ldyBXb3JsZDEPMA0GA1UEBwwGUmFmdGVsMR0wGwYDVQQKDBRT
dHJhdyBIYXQgTmV0d29ya2luZzEeMBwGCSqGSIb3DQEJARYPY2FAc3RyYXdoYXQu
Y29tMRgwFgYDVQQDDA9jYS5zdHJhd2hhdC5jb20wHhcNMjMxMTMwMTY1OTEyWhcN
MjQwMTI5MTY1OTEyWjCBgjELMAkGA1UEBhMCR0wxEjAQBgNVBAgMCU5ldyBXb3Js
ZDEdMBsGA1UECgwUU3RyYXcgSGF0IE5ldHdvcmtpbmcxHDAaBgNVBAMME3JhZGl1
cy5zdHJhd2hhdC5jb20xIjAgBgkqhkiG9w0BCQEWE3JhZGl1c0BzdHJhd2hhdC5j
b20wggEiMA0GCSqGSIb3DQEBAQUAA4IBDwAwggEKAoIBAQDR9nMsgeacKZUBEb7X
uLtEP52Vb7Q6oYcvBkeFmXpq1wqYeMyJUF2ZEIbxvgQnUNdN3UJlMnmgMCbbzj9j
oPJEIRZDDbWOwtFOTJvPJFYAQOf5hLGnavkOpyR8OTeh08VmmPq/nkRQUftj0PPx
kuFnD8Pp7I0sZ6FohzPiu/lNt6mzy+NjYIjzemSEUUARa0BPyYxrKqXtq9AM++AA
7Mi8T7qpsqPTfycpbir7ohqHPI8ANyUWBUB9mokIZYGZ17AvW6fig3ZjSZUOFRfE
7EFoGXEXmOuZDS7dTCjddujrJU3V4rpr9L6cGP10bfAdVcJrGSAnRThYhBvL0WL4
3FXZAgMBAAGjgaowgacwEwYDVR0lBAwwCgYIKwYBBQUHAwEwNgYDVR0fBC8wLTAr
oCmgJ4YlaHR0cDovL3d3dy5leGFtcGxlLmNvbS9leGFtcGxlX2NhLmNybDAYBgNV
HSAEETAPMA0GCysGAQQBgr5oAQMCMB0GA1UdDgQWBBRWENIRY3IfMQc2ZT/jTlKm
4RX8RTAfBgNVHSMEGDAWgBQUfO3GBm4NI8mIgJTb7O7rObXnvDANBgkqhkiG9w0B
AQsFAAOCAQEAcD55JwA75T9yGi7gi1rmVxLTGKWUbKXkcwisizAAhQMW0rhMCkEl
zObUGb51D4SPnHsuKwMjEmik0HJEY/Q6XI28toVG2Q+0KwCMxyXQJ8Y1n7N0e86A
ESBuXPNM2UMTyswGbHRaGWQSctKCl1AT3GJjsAj290Erab5N8TUbISQs5t8d+GYn
7xAFxffEqqauyw3Sc4gMBem9N44KNav3fF766TP40SP//MqiPmhK0vHsIMmGHUwJ
GPglmy0L+A6K4WcxuwyXO/mkoC04IHTTTzwmBme2ZypqyCiMPyQ1BrlerfC6JhN/
WDebWD2WFJGgXTZpYozFS3Kb1nUTcQW8ww==
-----END CERTIFICATE-----
