Certificate:
    Data:
        Version: 3 (0x2)
        Serial Number: 1 (0x1)
        Signature Algorithm: sha256WithRSAEncryption
        Issuer: C=GL, ST=New World, L=Raftel, O=Straw Hat Networking/emailAddress=ca@strawhat.com, CN=ca.strawhat.com
        Validity
            Not Before: Dec  6 15:04:11 2023 GMT
            Not After : Feb  4 15:04:11 2024 GMT
        Subject: C=GL, ST=New World, O=Straw Hat Networking, CN=radius.strawhat.com/emailAddress=radius@strawhat.com
        Subject Public Key Info:
            Public Key Algorithm: rsaEncryption
                Public-Key: (2048 bit)
                Modulus:
                    00:e2:e6:3e:ef:a8:7c:69:ce:1a:9e:c9:4e:4b:e6:
                    00:01:23:59:5c:6a:f0:80:af:72:aa:d9:77:b3:d6:
                    5b:32:44:58:3e:3b:63:09:28:49:26:09:11:cf:35:
                    80:44:38:e4:f9:ba:d4:5f:0e:60:34:5f:a6:3c:d5:
                    39:11:36:07:bb:2c:be:85:9e:94:e9:ad:4e:f6:df:
                    b2:e0:7b:db:be:cc:3b:ef:ec:38:58:d3:44:f3:de:
                    f8:1c:99:45:c4:e2:56:b9:fe:73:4b:e4:16:6e:15:
                    19:b7:ae:51:33:2f:2d:22:ff:f1:3c:73:86:95:de:
                    c0:44:7f:a1:48:f7:4d:63:d1:c5:a9:6e:6e:b3:0a:
                    4e:06:d3:a3:20:90:ce:d1:a0:a7:19:9b:88:e3:bd:
                    1e:0b:91:5c:5b:aa:8a:90:65:db:bd:df:ec:7d:19:
                    6e:3d:99:71:1a:92:34:19:32:4d:9f:fb:a3:7f:4c:
                    22:c1:c3:78:ac:12:d3:18:01:86:44:df:fc:d7:77:
                    a8:2e:8b:77:cf:bd:6d:8c:50:e8:17:00:43:3c:4b:
                    57:8d:5f:49:4e:8a:9d:3a:7b:2e:3d:2e:3b:78:2b:
                    11:f9:61:91:8f:d3:c1:28:87:15:fa:ee:1c:42:96:
                    62:f7:80:ac:a3:55:96:ed:e6:d2:a0:a1:ca:89:c7:
                    3a:2f
                Exponent: 65537 (0x10001)
        X509v3 extensions:
            X509v3 Extended Key Usage: 
                TLS Web Server Authentication
            X509v3 CRL Distribution Points: 
                Full Name:
                  URI:http://www.example.com/example_ca.crl
            X509v3 Subject Key Identifier: 
                95:61:62:8B:47:4E:09:97:40:5E:F7:51:A8:8E:12:71:3D:1B:AF:DB
            X509v3 Authority Key Identifier: 
                B1:D2:1D:E1:BB:BF:E8:80:9F:AF:72:21:68:60:A3:B4:EB:5D:A9:6A
    Signature Algorithm: sha256WithRSAEncryption
    Signature Value:
        3b:0b:5f:9e:6d:57:52:01:ae:6b:3b:80:09:ea:d7:8f:b4:34:
        04:5a:8a:86:cc:f2:29:87:09:9f:a6:8c:53:93:01:fa:61:ac:
        8d:a5:8e:29:4d:87:50:1a:40:f4:9f:a4:44:c3:fb:9e:95:26:
        6c:8b:a5:ff:a7:66:79:2f:07:12:87:0d:68:f3:e1:ad:e1:18:
        e5:06:41:88:56:d3:5b:18:82:fb:ee:4a:0a:1a:2a:5d:e2:91:
        31:4c:6b:2f:1b:f5:e9:bb:0c:ad:01:ae:91:4c:f0:92:bc:c5:
        d4:7b:85:1c:1d:47:22:f9:f0:8b:3f:47:ca:2b:8b:d1:b3:4f:
        60:13:f6:28:e5:a6:dd:cd:fe:64:13:b1:9e:c2:ea:ca:4e:2c:
        25:c7:f3:79:f0:d9:63:87:19:83:49:b2:16:3b:9a:3f:52:33:
        37:7e:5c:7e:38:01:fd:fa:c2:9a:d5:36:ae:42:c7:90:04:a1:
        60:59:07:d2:71:b3:0d:ea:51:78:e4:b0:81:4a:1c:22:2e:43:
        62:38:aa:6f:db:e3:75:24:8b:3d:b7:42:3f:c6:ba:a6:15:91:
        3e:0c:77:3c:2b:42:b7:f1:d7:aa:9a:0e:cb:9a:61:86:d6:af:
        b3:27:9b:56:04:3f:5c:75:c2:eb:32:74:00:3c:5d:db:9a:fd:
        5b:28:11:cc
-----BEGIN CERTIFICATE-----
MIIEGzCCAwOgAwIBAgIBATANBgkqhkiG9w0BAQsFADCBizELMAkGA1UEBhMCR0wx
EjAQBgNVBAgMCU5ldyBXb3JsZDEPMA0GA1UEBwwGUmFmdGVsMR0wGwYDVQQKDBRT
dHJhdyBIYXQgTmV0d29ya2luZzEeMBwGCSqGSIb3DQEJARYPY2FAc3RyYXdoYXQu
Y29tMRgwFgYDVQQDDA9jYS5zdHJhd2hhdC5jb20wHhcNMjMxMjA2MTUwNDExWhcN
MjQwMjA0MTUwNDExWjCBgjELMAkGA1UEBhMCR0wxEjAQBgNVBAgMCU5ldyBXb3Js
ZDEdMBsGA1UECgwUU3RyYXcgSGF0IE5ldHdvcmtpbmcxHDAaBgNVBAMME3JhZGl1
cy5zdHJhd2hhdC5jb20xIjAgBgkqhkiG9w0BCQEWE3JhZGl1c0BzdHJhd2hhdC5j
b20wggEiMA0GCSqGSIb3DQEBAQUAA4IBDwAwggEKAoIBAQDi5j7vqHxpzhqeyU5L
5gABI1lcavCAr3Kq2Xez1lsyRFg+O2MJKEkmCRHPNYBEOOT5utRfDmA0X6Y81TkR
Nge7LL6FnpTprU7237Lge9u+zDvv7DhY00Tz3vgcmUXE4la5/nNL5BZuFRm3rlEz
Ly0i//E8c4aV3sBEf6FI901j0cWpbm6zCk4G06MgkM7RoKcZm4jjvR4LkVxbqoqQ
Zdu93+x9GW49mXEakjQZMk2f+6N/TCLBw3isEtMYAYZE3/zXd6gui3fPvW2MUOgX
AEM8S1eNX0lOip06ey49Ljt4KxH5YZGP08EohxX67hxClmL3gKyjVZbt5tKgocqJ
xzovAgMBAAGjgZAwgY0wEwYDVR0lBAwwCgYIKwYBBQUHAwEwNgYDVR0fBC8wLTAr
oCmgJ4YlaHR0cDovL3d3dy5leGFtcGxlLmNvbS9leGFtcGxlX2NhLmNybDAdBgNV
HQ4EFgQUlWFii0dOCZdAXvdRqI4ScT0br9swHwYDVR0jBBgwFoAUsdId4bu/6ICf
r3IhaGCjtOtdqWowDQYJKoZIhvcNAQELBQADggEBADsLX55tV1IBrms7gAnq14+0
NARaiobM8imHCZ+mjFOTAfphrI2ljilNh1AaQPSfpETD+56VJmyLpf+nZnkvBxKH
DWjz4a3hGOUGQYhW01sYgvvuSgoaKl3ikTFMay8b9em7DK0BrpFM8JK8xdR7hRwd
RyL58Is/R8ori9GzT2AT9ijlpt3N/mQTsZ7C6spOLCXH83nw2WOHGYNJshY7mj9S
Mzd+XH44Af36wprVNq5Cx5AEoWBZB9Jxsw3qUXjksIFKHCIuQ2I4qm/b43Ukiz23
Qj/GuqYVkT4MdzwrQrfx16qaDsuaYYbWr7Mnm1YEP1x1wusydAA8Xdua/VsoEcw=
-----END CERTIFICATE-----
