Certificate:
    Data:
        Version: 3 (0x2)
        Serial Number: 1 (0x1)
        Signature Algorithm: sha256WithRSAEncryption
        Issuer: C=FR, ST=Radius, L=Somewhere, O=Example Inc./emailAddress=admin@example.org, CN=Example Certificate Authority
        Validity
            Not Before: Dec 23 16:54:51 2023 GMT
            Not After : Feb 21 16:54:51 2024 GMT
        Subject: C=FR, ST=Radius, O=Example Inc., CN=Example Server Certificate/emailAddress=admin@example.org
        Subject Public Key Info:
            Public Key Algorithm: rsaEncryption
                Public-Key: (2048 bit)
                Modulus:
                    00:a4:fa:5d:ac:a4:9e:08:36:13:b5:9b:8c:70:44:
                    c2:12:e0:89:df:c9:6c:10:1e:af:db:23:bc:4c:91:
                    49:7a:47:e2:69:ea:b8:a0:c9:7d:15:85:ab:0b:27:
                    1f:be:8d:40:82:c8:61:0a:1e:ae:9a:48:fa:4b:6b:
                    5c:96:16:f3:14:e6:5f:1f:c9:08:6c:93:bd:1e:c5:
                    bf:4a:99:ed:02:a4:7d:82:35:2c:31:37:7f:62:2b:
                    3b:e6:97:86:27:30:5b:3f:be:c0:fc:f9:aa:76:ef:
                    f5:c3:1c:13:68:f7:6a:d2:57:87:12:cb:d9:3f:75:
                    e4:15:fe:12:37:5e:a9:a5:90:6d:80:46:28:3b:37:
                    de:77:b9:3a:24:68:d2:d3:36:13:ce:a0:09:68:fb:
                    34:5c:3e:4e:0a:b4:4e:4b:20:7e:60:ac:b6:b0:6c:
                    ea:f3:9d:14:a4:59:d6:37:02:89:b3:ec:a4:b7:3d:
                    59:bd:ea:3c:5f:f3:32:e7:6c:d1:13:07:87:74:45:
                    55:6e:4e:5a:fd:32:06:c1:9f:a1:56:9a:d2:5c:5b:
                    9e:cd:25:f0:5c:d2:60:be:4b:78:83:83:db:10:c9:
                    0f:e6:8c:a2:a5:cc:fe:b6:22:60:18:17:c5:1a:76:
                    b4:d7:44:d4:42:bd:ca:d0:48:99:c9:33:32:89:2a:
                    67:49
                Exponent: 65537 (0x10001)
        X509v3 extensions:
            X509v3 Extended Key Usage: 
                TLS Web Server Authentication
            X509v3 CRL Distribution Points: 
                Full Name:
                  URI:http://www.example.com/example_ca.crl
            X509v3 Subject Key Identifier: 
                BF:68:87:96:14:98:6B:AD:0A:B5:41:FE:F1:5D:76:1D:4F:F4:20:3F
            X509v3 Authority Key Identifier: 
                8D:E7:60:A3:33:42:93:1B:5F:F1:C7:14:C1:B5:64:CE:3F:6D:28:26
    Signature Algorithm: sha256WithRSAEncryption
    Signature Value:
        1d:35:67:82:71:09:a0:b8:78:a2:c5:53:b8:58:b8:85:23:60:
        4e:ac:04:1a:a3:a0:ae:d9:64:31:85:48:da:45:89:05:1b:94:
        1b:cc:13:b6:3c:15:73:93:d0:dc:49:d2:eb:51:95:8d:e2:a6:
        3d:8b:00:40:f8:29:19:76:27:87:20:41:b9:3b:04:0c:a0:26:
        47:ae:21:84:46:26:09:f8:0c:cd:e2:1c:b0:31:6c:71:9b:22:
        f9:5d:aa:c7:01:47:ce:74:cd:33:4d:e7:68:d2:0e:17:52:1d:
        cd:b1:c9:f2:f6:6e:8d:20:7b:38:4b:2a:e2:d1:2e:7b:ed:43:
        f3:eb:17:a0:46:3f:59:89:a4:35:96:d7:95:03:a4:8b:71:1a:
        20:85:64:00:6a:a3:09:50:50:27:03:2f:c7:e3:68:72:e3:d7:
        b7:44:dd:b8:8b:0e:ff:e0:eb:af:63:f6:fa:53:bb:fc:3a:9f:
        a6:b0:d5:ed:62:1f:7a:6d:d2:fb:66:34:98:0f:22:b6:00:5e:
        5d:19:b4:a1:0d:03:ac:c2:d7:b9:f2:68:47:9c:80:1a:8d:c9:
        64:cc:65:67:34:28:a7:6b:0f:15:0a:fb:0e:93:99:13:dc:e0:
        1c:b5:b5:df:83:90:ee:be:b3:7e:f2:94:2b:71:38:35:d9:a7:
        88:f0:24:ec
-----BEGIN CERTIFICATE-----
MIIEHDCCAwSgAwIBAgIBATANBgkqhkiG9w0BAQsFADCBkzELMAkGA1UEBhMCRlIx
DzANBgNVBAgMBlJhZGl1czESMBAGA1UEBwwJU29tZXdoZXJlMRUwEwYDVQQKDAxF
eGFtcGxlIEluYy4xIDAeBgkqhkiG9w0BCQEWEWFkbWluQGV4YW1wbGUub3JnMSYw
JAYDVQQDDB1FeGFtcGxlIENlcnRpZmljYXRlIEF1dGhvcml0eTAeFw0yMzEyMjMx
NjU0NTFaFw0yNDAyMjExNjU0NTFaMHwxCzAJBgNVBAYTAkZSMQ8wDQYDVQQIDAZS
YWRpdXMxFTATBgNVBAoMDEV4YW1wbGUgSW5jLjEjMCEGA1UEAwwaRXhhbXBsZSBT
ZXJ2ZXIgQ2VydGlmaWNhdGUxIDAeBgkqhkiG9w0BCQEWEWFkbWluQGV4YW1wbGUu
b3JnMIIBIjANBgkqhkiG9w0BAQEFAAOCAQ8AMIIBCgKCAQEApPpdrKSeCDYTtZuM
cETCEuCJ38lsEB6v2yO8TJFJekfiaeq4oMl9FYWrCycfvo1AgshhCh6umkj6S2tc
lhbzFOZfH8kIbJO9HsW/SpntAqR9gjUsMTd/Yis75peGJzBbP77A/Pmqdu/1wxwT
aPdq0leHEsvZP3XkFf4SN16ppZBtgEYoOzfed7k6JGjS0zYTzqAJaPs0XD5OCrRO
SyB+YKy2sGzq850UpFnWNwKJs+yktz1Zveo8X/My52zREweHdEVVbk5a/TIGwZ+h
VprSXFuezSXwXNJgvkt4g4PbEMkP5oyipcz+tiJgGBfFGna010TUQr3K0EiZyTMy
iSpnSQIDAQABo4GQMIGNMBMGA1UdJQQMMAoGCCsGAQUFBwMBMDYGA1UdHwQvMC0w
K6ApoCeGJWh0dHA6Ly93d3cuZXhhbXBsZS5jb20vZXhhbXBsZV9jYS5jcmwwHQYD
VR0OBBYEFL9oh5YUmGutCrVB/vFddh1P9CA/MB8GA1UdIwQYMBaAFI3nYKMzQpMb
X/HHFMG1ZM4/bSgmMA0GCSqGSIb3DQEBCwUAA4IBAQAdNWeCcQmguHiixVO4WLiF
I2BOrAQao6Cu2WQxhUjaRYkFG5QbzBO2PBVzk9DcSdLrUZWN4qY9iwBA+CkZdieH
IEG5OwQMoCZHriGERiYJ+AzN4hywMWxxmyL5XarHAUfOdM0zTedo0g4XUh3Nscny
9m6NIHs4Syri0S577UPz6xegRj9ZiaQ1lteVA6SLcRoghWQAaqMJUFAnAy/H42hy
49e3RN24iw7/4OuvY/b6U7v8Op+msNXtYh96bdL7ZjSYDyK2AF5dGbShDQOswte5
8mhHnIAajclkzGVnNCinaw8VCvsOk5kT3OActbXfg5DuvrN+8pQrcTg12aeI8CTs
-----END CERTIFICATE-----
