Certificate:
    Data:
        Version: 3 (0x2)
        Serial Number: 1 (0x1)
        Signature Algorithm: sha256WithRSAEncryption
        Issuer: C=GL, ST=New World, L=Raftel, O=Straw Hat Networking/emailAddress=ca@strawhat.com, CN=ca.strawhat.com
        Validity
            Not Before: Dec  6 14:32:37 2023 GMT
            Not After : Feb  4 14:32:37 2024 GMT
        Subject: C=GL, ST=New World, O=Straw Hat Networking, CN=radius.strawhat.com/emailAddress=radius@strawhat.com
        Subject Public Key Info:
            Public Key Algorithm: rsaEncryption
                Public-Key: (2048 bit)
                Modulus:
                    00:cf:23:64:76:66:81:3c:7d:91:77:b6:ce:ed:c4:
                    79:37:68:25:d3:8e:72:6b:dc:e4:56:df:01:98:24:
                    e7:67:bc:d3:f8:3b:c8:93:3c:46:18:b8:12:41:45:
                    02:28:2e:a8:11:13:a3:3c:0e:8d:d8:8e:22:f8:83:
                    59:a3:2d:8f:0d:c2:0a:b1:73:d0:cb:c0:20:60:45:
                    a6:2d:30:6c:78:89:a2:d1:75:84:64:3c:36:f7:2c:
                    bc:54:69:fb:cf:bf:b8:74:09:df:71:4c:e4:a7:c5:
                    31:84:33:9f:0c:82:e2:47:8c:00:fa:05:89:a0:a9:
                    58:7f:3f:26:e7:9f:fd:79:dc:a1:b7:63:87:8a:81:
                    09:04:32:9f:54:0e:4d:66:9a:98:95:87:e7:75:0d:
                    6d:c7:b9:f5:9e:86:93:19:28:88:f9:bd:e8:57:6f:
                    fb:cc:65:e3:51:3a:0f:33:d7:4d:21:67:bb:59:9f:
                    2a:88:5a:ba:d3:b4:63:4f:b7:6b:ea:28:a7:11:3c:
                    76:f4:7b:69:26:42:39:c5:e6:e6:85:38:e9:db:91:
                    86:c8:ba:a3:2a:d5:c3:8b:1d:83:03:20:7b:cf:3e:
                    08:16:cb:14:44:b9:08:f7:d0:ef:a7:8d:2b:c6:55:
                    fb:60:2e:8a:24:23:60:ce:03:36:c4:38:7e:38:0f:
                    87:45
                Exponent: 65537 (0x10001)
        X509v3 extensions:
            X509v3 Extended Key Usage: 
                TLS Web Server Authentication
            X509v3 CRL Distribution Points: 
                Full Name:
                  URI:http://www.example.com/example_ca.crl
            X509v3 Certificate Policies: 
                Policy: 1.3.6.1.4.1.40808.1.3.2
            X509v3 Subject Key Identifier: 
                51:74:75:D9:5E:44:D5:71:3A:0A:43:76:64:45:F7:89:AF:B7:6E:65
            X509v3 Authority Key Identifier: 
                31:52:4D:6C:97:96:C7:9B:8C:5F:83:C7:1A:7A:F0:50:89:73:14:15
    Signature Algorithm: sha256WithRSAEncryption
    Signature Value:
        2e:b6:39:87:89:25:cb:40:dc:75:90:68:d7:b4:21:05:2c:10:
        e4:9e:cf:f1:de:d2:f7:20:80:5c:ff:35:bb:5b:9c:9b:25:99:
        52:ea:8e:7b:1b:c6:05:09:5f:17:bc:f3:8e:5e:5b:60:d5:f4:
        30:2a:13:63:ce:f8:61:c0:de:72:e4:ba:16:67:79:9b:2e:ec:
        ac:9f:4f:de:9d:bd:80:23:a0:17:5b:71:2d:4d:be:3c:1a:e3:
        13:db:a0:05:17:6f:29:91:c2:9c:95:49:56:73:7c:52:5c:f2:
        99:8b:3c:23:cb:47:a4:3f:a4:a3:bf:ef:fa:be:64:3f:e2:82:
        87:7d:db:e1:a7:af:7d:a5:bd:cc:e7:87:f1:45:62:f4:cb:00:
        02:8b:0b:49:2f:bc:45:4d:1d:a8:35:74:ee:6e:51:9a:92:75:
        c7:fe:ab:64:74:29:53:0d:39:71:fa:c4:81:9f:5b:2c:f9:b1:
        7b:d9:7a:9b:fc:93:ac:7f:7c:2c:94:b9:77:65:4f:1b:6f:ec:
        1c:8c:14:3e:4c:30:0c:50:6a:89:4d:02:08:f7:fa:0d:b1:8d:
        bf:cf:da:fd:14:a1:0b:36:13:d4:b0:87:72:92:a0:e4:15:82:
        25:65:7e:26:bf:3c:d4:69:bf:93:ca:18:80:7e:1c:80:ad:57:
        75:40:1f:72
-----BEGIN CERTIFICATE-----
MIIENTCCAx2gAwIBAgIBATANBgkqhkiG9w0BAQsFADCBizELMAkGA1UEBhMCR0wx
EjAQBgNVBAgMCU5ldyBXb3JsZDEPMA0GA1UEBwwGUmFmdGVsMR0wGwYDVQQKDBRT
dHJhdyBIYXQgTmV0d29ya2luZzEeMBwGCSqGSIb3DQEJARYPY2FAc3RyYXdoYXQu
Y29tMRgwFgYDVQQDDA9jYS5zdHJhd2hhdC5jb20wHhcNMjMxMjA2MTQzMjM3WhcN
MjQwMjA0MTQzMjM3WjCBgjELMAkGA1UEBhMCR0wxEjAQBgNVBAgMCU5ldyBXb3Js
ZDEdMBsGA1UECgwUU3RyYXcgSGF0IE5ldHdvcmtpbmcxHDAaBgNVBAMME3JhZGl1
cy5zdHJhd2hhdC5jb20xIjAgBgkqhkiG9w0BCQEWE3JhZGl1c0BzdHJhd2hhdC5j
b20wggEiMA0GCSqGSIb3DQEBAQUAA4IBDwAwggEKAoIBAQDPI2R2ZoE8fZF3ts7t
xHk3aCXTjnJr3ORW3wGYJOdnvNP4O8iTPEYYuBJBRQIoLqgRE6M8Do3YjiL4g1mj
LY8Nwgqxc9DLwCBgRaYtMGx4iaLRdYRkPDb3LLxUafvPv7h0Cd9xTOSnxTGEM58M
guJHjAD6BYmgqVh/Pybnn/153KG3Y4eKgQkEMp9UDk1mmpiVh+d1DW3HufWehpMZ
KIj5vehXb/vMZeNROg8z100hZ7tZnyqIWrrTtGNPt2vqKKcRPHb0e2kmQjnF5uaF
OOnbkYbIuqMq1cOLHYMDIHvPPggWyxREuQj30O+njSvGVftgLookI2DOAzbEOH44
D4dFAgMBAAGjgaowgacwEwYDVR0lBAwwCgYIKwYBBQUHAwEwNgYDVR0fBC8wLTAr
oCmgJ4YlaHR0cDovL3d3dy5leGFtcGxlLmNvbS9leGFtcGxlX2NhLmNybDAYBgNV
HSAEETAPMA0GCysGAQQBgr5oAQMCMB0GA1UdDgQWBBRRdHXZXkTVcToKQ3ZkRfeJ
r7duZTAfBgNVHSMEGDAWgBQxUk1sl5bHm4xfg8caevBQiXMUFTANBgkqhkiG9w0B
AQsFAAOCAQEALrY5h4kly0DcdZBo17QhBSwQ5J7P8d7S9yCAXP81u1ucmyWZUuqO
exvGBQlfF7zzjl5bYNX0MCoTY874YcDecuS6Fmd5my7srJ9P3p29gCOgF1txLU2+
PBrjE9ugBRdvKZHCnJVJVnN8UlzymYs8I8tHpD+ko7/v+r5kP+KCh33b4aevfaW9
zOeH8UVi9MsAAosLSS+8RU0dqDV07m5RmpJ1x/6rZHQpUw05cfrEgZ9bLPmxe9l6
m/yTrH98LJS5d2VPG2/sHIwUPkwwDFBqiU0CCPf6DbGNv8/a/RShCzYT1LCHcpKg
5BWCJWV+Jr881Gm/k8oYgH4cgK1XdUAfcg==
-----END CERTIFICATE-----
