Certificate:
    Data:
        Version: 3 (0x2)
        Serial Number: 1 (0x1)
        Signature Algorithm: sha256WithRSAEncryption
        Issuer: C=FR, ST=Radius, L=Somewhere, O=Example Inc./emailAddress=admin@example.org, CN=Example Certificate Authority
        Validity
            Not Before: Feb 22 15:35:46 2024 GMT
            Not After : Apr 22 15:35:46 2024 GMT
        Subject: C=FR, ST=Radius, O=Example Inc., CN=Example Server Certificate/emailAddress=admin@example.org
        Subject Public Key Info:
            Public Key Algorithm: rsaEncryption
                Public-Key: (2048 bit)
                Modulus:
                    00:a1:b4:63:2d:55:e2:d9:6f:9b:5d:51:e9:57:a6:
                    36:73:ca:47:3a:5d:38:4d:13:e8:0a:9d:37:ef:cb:
                    58:2e:39:d0:13:e5:9e:1d:49:5c:b6:76:31:45:ab:
                    5e:ae:b7:8b:e7:1f:8d:b4:52:e7:6c:4e:06:d0:45:
                    0e:ac:b7:08:11:6e:18:e0:c4:3f:fd:67:f7:e3:f1:
                    b2:aa:67:16:70:2b:8d:64:12:97:e6:89:17:fc:15:
                    e1:33:8d:5a:81:74:67:91:df:0b:ed:f1:97:70:dd:
                    c0:d6:0c:c7:c7:e0:90:0e:9d:c4:1c:84:12:38:fb:
                    74:14:28:48:d6:63:34:61:0e:12:06:df:20:fd:07:
                    e5:c0:04:63:ff:23:d0:9d:f7:d7:ca:17:ef:e9:d8:
                    41:45:1d:2a:25:6d:d5:ef:63:97:8b:b5:6d:55:7d:
                    91:04:54:b2:81:ca:85:a6:59:c5:6c:0f:62:76:0d:
                    13:85:0c:f1:53:88:f5:d5:89:ef:8b:31:3b:d9:9e:
                    a1:c6:45:69:9c:17:91:4c:6d:04:d5:f8:b0:44:95:
                    47:56:bb:ae:56:c5:2b:70:5d:09:24:f5:d1:66:ae:
                    be:c4:80:7d:7b:99:c4:a7:b0:53:ef:a3:20:05:0c:
                    e5:a7:06:c8:4a:b7:57:4a:f2:c4:06:7e:a1:06:1b:
                    cc:fd
                Exponent: 65537 (0x10001)
        X509v3 extensions:
            X509v3 Extended Key Usage: 
                TLS Web Server Authentication
            X509v3 CRL Distribution Points: 
                Full Name:
                  URI:http://www.example.com/example_ca.crl
            X509v3 Subject Key Identifier: 
                61:E5:73:B0:BD:F5:83:16:DF:DC:65:14:30:5F:F0:48:B0:E5:66:61
            X509v3 Authority Key Identifier: 
                CB:46:5E:5D:9F:58:56:A8:1B:55:C9:43:F7:6F:7C:E9:C2:33:EF:F1
    Signature Algorithm: sha256WithRSAEncryption
    Signature Value:
        3d:cd:99:4f:2d:97:65:2e:28:bb:47:8a:b0:74:8f:32:93:8b:
        3a:2d:67:95:bc:21:7f:86:e0:a9:1f:86:91:ca:e8:32:6c:bb:
        a7:89:4a:54:b5:ff:2e:0d:ad:55:b6:e0:d0:f8:ed:a7:99:13:
        dd:53:4d:fa:fc:3b:88:3c:4b:7e:e6:54:cf:df:41:30:ea:e2:
        cd:fa:47:09:53:d5:e4:10:74:19:2d:40:be:b4:58:bf:57:a6:
        8d:26:b6:da:26:70:3a:23:c7:6b:2b:9b:7c:dd:b2:d2:53:05:
        12:07:80:d6:ab:7f:5a:ed:68:5a:57:dc:56:51:6d:3a:eb:2c:
        30:96:a1:e4:8b:a8:e4:07:07:3f:f9:3a:0e:23:0d:af:e6:40:
        1e:e4:c3:10:94:c7:b5:65:40:42:4a:22:c9:2c:68:fb:c7:ca:
        56:78:af:81:9e:63:47:55:91:89:d8:e5:51:7b:ea:bb:69:c9:
        30:a5:0a:04:87:cd:34:fe:ce:1f:9e:a8:fe:c5:2f:47:ee:75:
        0d:1c:53:6c:2c:74:13:46:ea:fa:08:af:46:bb:4c:44:a7:fc:
        4f:52:41:2c:32:d9:13:d4:7c:c1:76:9a:71:d2:d7:05:a4:4f:
        ee:cb:90:58:ec:af:3e:fd:2d:eb:61:b4:2b:12:8a:36:e8:84:
        7b:bb:5e:e0
-----BEGIN CERTIFICATE-----
MIIEHDCCAwSgAwIBAgIBATANBgkqhkiG9w0BAQsFADCBkzELMAkGA1UEBhMCRlIx
DzANBgNVBAgMBlJhZGl1czESMBAGA1UEBwwJU29tZXdoZXJlMRUwEwYDVQQKDAxF
eGFtcGxlIEluYy4xIDAeBgkqhkiG9w0BCQEWEWFkbWluQGV4YW1wbGUub3JnMSYw
JAYDVQQDDB1FeGFtcGxlIENlcnRpZmljYXRlIEF1dGhvcml0eTAeFw0yNDAyMjIx
NTM1NDZaFw0yNDA0MjIxNTM1NDZaMHwxCzAJBgNVBAYTAkZSMQ8wDQYDVQQIDAZS
YWRpdXMxFTATBgNVBAoMDEV4YW1wbGUgSW5jLjEjMCEGA1UEAwwaRXhhbXBsZSBT
ZXJ2ZXIgQ2VydGlmaWNhdGUxIDAeBgkqhkiG9w0BCQEWEWFkbWluQGV4YW1wbGUu
b3JnMIIBIjANBgkqhkiG9w0BAQEFAAOCAQ8AMIIBCgKCAQEAobRjLVXi2W+bXVHp
V6Y2c8pHOl04TRPoCp0378tYLjnQE+WeHUlctnYxRaterreL5x+NtFLnbE4G0EUO
rLcIEW4Y4MQ//Wf34/GyqmcWcCuNZBKX5okX/BXhM41agXRnkd8L7fGXcN3A1gzH
x+CQDp3EHIQSOPt0FChI1mM0YQ4SBt8g/QflwARj/yPQnffXyhfv6dhBRR0qJW3V
72OXi7VtVX2RBFSygcqFplnFbA9idg0ThQzxU4j11YnvizE72Z6hxkVpnBeRTG0E
1fiwRJVHVruuVsUrcF0JJPXRZq6+xIB9e5nEp7BT76MgBQzlpwbISrdXSvLEBn6h
BhvM/QIDAQABo4GQMIGNMBMGA1UdJQQMMAoGCCsGAQUFBwMBMDYGA1UdHwQvMC0w
K6ApoCeGJWh0dHA6Ly93d3cuZXhhbXBsZS5jb20vZXhhbXBsZV9jYS5jcmwwHQYD
VR0OBBYEFGHlc7C99YMW39xlFDBf8Eiw5WZhMB8GA1UdIwQYMBaAFMtGXl2fWFao
G1XJQ/dvfOnCM+/xMA0GCSqGSIb3DQEBCwUAA4IBAQA9zZlPLZdlLii7R4qwdI8y
k4s6LWeVvCF/huCpH4aRyugybLuniUpUtf8uDa1VtuDQ+O2nmRPdU036/DuIPEt+
5lTP30Ew6uLN+kcJU9XkEHQZLUC+tFi/V6aNJrbaJnA6I8drK5t83bLSUwUSB4DW
q39a7WhaV9xWUW066ywwlqHki6jkBwc/+ToOIw2v5kAe5MMQlMe1ZUBCSiLJLGj7
x8pWeK+BnmNHVZGJ2OVRe+q7ackwpQoEh800/s4fnqj+xS9H7nUNHFNsLHQTRur6
CK9Gu0xEp/xPUkEsMtkT1HzBdppx0tcFpE/uy5BY7K8+/S3rYbQrEoo26IR7u17g
-----END CERTIFICATE-----
