Certificate:
    Data:
        Version: 3 (0x2)
        Serial Number: 2 (0x2)
        Signature Algorithm: sha256WithRSAEncryption
        Issuer: C=GL, ST=New World, L=Raftel, O=Straw Hat Networking/emailAddress=ca@strawhat.com, CN=ca.strawhat.com
        Validity
            Not Before: Dec  6 14:47:56 2023 GMT
            Not After : Feb  4 14:47:56 2024 GMT
        Subject: C=GL, ST=New World, O=Straw Hat Networking, CN=luffy@strawhat.com/emailAddress=luffy@strawhat.com
        Subject Public Key Info:
            Public Key Algorithm: rsaEncryption
                Public-Key: (2048 bit)
                Modulus:
                    00:a2:43:85:04:a1:09:a9:c7:12:f5:37:0d:f7:0e:
                    fc:a8:3a:ce:3b:c7:f0:f7:e8:14:3b:39:95:0d:65:
                    02:b9:15:f1:10:a2:6e:dc:a1:3b:7d:c5:26:f4:d3:
                    8a:bc:dd:e7:cf:ae:91:cf:6d:ee:2b:e0:f6:63:80:
                    f8:c2:bd:36:88:8c:f1:07:13:e7:7a:f5:c8:5e:16:
                    4d:b4:47:a5:4c:af:37:fd:6f:a0:d6:97:c8:1f:6b:
                    94:67:11:d7:26:6a:f7:f3:69:38:2c:35:94:91:72:
                    4e:33:a1:58:ef:f7:c2:a5:06:99:5c:c8:8b:14:0e:
                    2d:c3:ea:a0:08:b0:fe:77:87:e0:b5:bd:d3:36:57:
                    48:64:a1:e0:79:09:3c:9a:0b:f7:be:ee:3a:5d:e5:
                    b9:67:1b:66:12:8a:8e:e1:f7:ef:f6:fe:57:e0:82:
                    40:73:13:af:8e:78:ff:dd:95:db:a4:d1:1a:91:56:
                    5a:00:38:df:f7:37:e3:84:21:f6:75:31:3a:db:57:
                    1a:59:2e:a3:08:bf:f9:55:da:6b:d9:3c:8d:af:58:
                    e6:02:01:fe:21:3a:13:85:83:20:b7:68:53:bc:32:
                    c8:96:9a:28:ff:19:0f:95:0a:b5:c0:0a:fc:ce:34:
                    c3:c3:f5:db:5e:3c:44:5c:dc:b6:8b:33:82:cd:1e:
                    2f:41
                Exponent: 65537 (0x10001)
        X509v3 extensions:
            X509v3 Extended Key Usage: 
                TLS Web Client Authentication
            X509v3 CRL Distribution Points: 
                Full Name:
                  URI:http://www.example.com/example_ca.crl
            X509v3 Subject Key Identifier: 
                7A:07:19:BA:98:A7:D6:B2:0E:E1:D0:6E:C6:02:3C:06:6A:91:FC:C5
            X509v3 Authority Key Identifier: 
                31:52:4D:6C:97:96:C7:9B:8C:5F:83:C7:1A:7A:F0:50:89:73:14:15
    Signature Algorithm: sha256WithRSAEncryption
    Signature Value:
        42:fc:71:8c:4e:9c:25:12:b2:44:aa:e4:13:68:49:6e:46:9d:
        1a:c1:61:8c:41:ce:c1:0b:f5:f0:8f:4d:eb:0e:c5:f8:8e:0d:
        2d:57:70:a4:03:4f:36:69:4d:d0:d9:2f:88:81:6a:85:6d:0a:
        aa:2a:20:59:79:6d:50:8b:9a:1b:09:16:cb:79:68:19:c4:c4:
        f7:6d:ca:13:80:b1:b5:b0:66:34:38:da:a5:3c:de:69:3a:42:
        cf:89:7e:87:29:34:1e:0d:9a:2a:aa:89:b0:db:f3:1f:12:ac:
        ff:23:f8:bf:14:e5:dc:06:d9:06:8e:f1:e1:8d:e5:0e:4e:7b:
        91:6f:8a:0e:13:f7:54:be:cf:19:88:66:76:8e:14:6a:f8:cf:
        83:7f:0f:71:16:7f:bf:95:3e:61:6b:79:66:c8:65:5c:ea:6c:
        22:0b:33:3d:92:ca:92:ff:9d:df:52:92:7c:16:3a:88:f9:d9:
        8e:61:60:71:09:b9:24:74:72:97:53:4e:54:42:b9:9a:28:83:
        c8:19:18:04:1d:5b:db:19:ae:73:9f:98:e8:19:72:70:61:24:
        b6:3c:6e:18:10:10:18:67:0b:d5:60:97:05:eb:a5:3a:e9:7e:
        b7:f4:6c:30:2b:43:d7:1b:77:b2:68:d0:f5:b1:88:b6:9b:f1:
        62:7f:5c:80
-----BEGIN CERTIFICATE-----
MIIEGTCCAwGgAwIBAgIBAjANBgkqhkiG9w0BAQsFADCBizELMAkGA1UEBhMCR0wx
EjAQBgNVBAgMCU5ldyBXb3JsZDEPMA0GA1UEBwwGUmFmdGVsMR0wGwYDVQQKDBRT
dHJhdyBIYXQgTmV0d29ya2luZzEeMBwGCSqGSIb3DQEJARYPY2FAc3RyYXdoYXQu
Y29tMRgwFgYDVQQDDA9jYS5zdHJhd2hhdC5jb20wHhcNMjMxMjA2MTQ0NzU2WhcN
MjQwMjA0MTQ0NzU2WjCBgDELMAkGA1UEBhMCR0wxEjAQBgNVBAgMCU5ldyBXb3Js
ZDEdMBsGA1UECgwUU3RyYXcgSGF0IE5ldHdvcmtpbmcxGzAZBgNVBAMMEmx1ZmZ5
QHN0cmF3aGF0LmNvbTEhMB8GCSqGSIb3DQEJARYSbHVmZnlAc3RyYXdoYXQuY29t
MIIBIjANBgkqhkiG9w0BAQEFAAOCAQ8AMIIBCgKCAQEAokOFBKEJqccS9TcN9w78
qDrOO8fw9+gUOzmVDWUCuRXxEKJu3KE7fcUm9NOKvN3nz66Rz23uK+D2Y4D4wr02
iIzxBxPnevXIXhZNtEelTK83/W+g1pfIH2uUZxHXJmr382k4LDWUkXJOM6FY7/fC
pQaZXMiLFA4tw+qgCLD+d4fgtb3TNldIZKHgeQk8mgv3vu46XeW5ZxtmEoqO4ffv
9v5X4IJAcxOvjnj/3ZXbpNEakVZaADjf9zfjhCH2dTE621caWS6jCL/5Vdpr2TyN
r1jmAgH+IToThYMgt2hTvDLIlpoo/xkPlQq1wAr8zjTDw/XbXjxEXNy2izOCzR4v
QQIDAQABo4GQMIGNMBMGA1UdJQQMMAoGCCsGAQUFBwMCMDYGA1UdHwQvMC0wK6Ap
oCeGJWh0dHA6Ly93d3cuZXhhbXBsZS5jb20vZXhhbXBsZV9jYS5jcmwwHQYDVR0O
BBYEFHoHGbqYp9ayDuHQbsYCPAZqkfzFMB8GA1UdIwQYMBaAFDFSTWyXlsebjF+D
xxp68FCJcxQVMA0GCSqGSIb3DQEBCwUAA4IBAQBC/HGMTpwlErJEquQTaEluRp0a
wWGMQc7BC/Xwj03rDsX4jg0tV3CkA082aU3Q2S+IgWqFbQqqKiBZeW1Qi5obCRbL
eWgZxMT3bcoTgLG1sGY0ONqlPN5pOkLPiX6HKTQeDZoqqomw2/MfEqz/I/i/FOXc
BtkGjvHhjeUOTnuRb4oOE/dUvs8ZiGZ2jhRq+M+Dfw9xFn+/lT5ha3lmyGVc6mwi
CzM9ksqS/53fUpJ8FjqI+dmOYWBxCbkkdHKXU05UQrmaKIPIGRgEHVvbGa5zn5jo
GXJwYSS2PG4YEBAYZwvVYJcF66U66X639GwwK0PXG3eyaND1sYi2m/Fif1yA
-----END CERTIFICATE-----
