Certificate:
    Data:
        Version: 3 (0x2)
        Serial Number: 2 (0x2)
        Signature Algorithm: sha256WithRSAEncryption
        Issuer: C=FR, ST=Radius, L=Somewhere, O=Example Inc./emailAddress=admin@example.org, CN=Example Certificate Authority
        Validity
            Not Before: Feb 22 15:35:49 2024 GMT
            Not After : Apr 22 15:35:49 2024 GMT
        Subject: C=FR, ST=Radius, O=Example Inc., CN=bob@example.org/emailAddress=bob@example.org
        Subject Public Key Info:
            Public Key Algorithm: rsaEncryption
                Public-Key: (2048 bit)
                Modulus:
                    00:be:cc:bd:9d:ad:76:ca:f6:b1:3a:79:a0:a7:19:
                    b5:26:e6:94:1e:d1:6e:79:b9:c3:c4:08:65:00:97:
                    fa:17:8c:48:da:37:cd:76:07:6a:e8:56:94:a4:d1:
                    e0:f4:82:e8:ed:d8:e0:bf:b5:f4:72:90:c3:2f:e2:
                    38:75:71:ae:80:e4:a2:df:6c:d8:0c:84:5d:ae:5b:
                    36:67:c6:08:1c:cc:7e:ff:c5:90:f6:a0:10:ce:9b:
                    58:82:4c:58:9d:4d:e9:50:2d:c3:36:8a:51:f3:d3:
                    b7:f2:10:a7:a8:68:cb:e8:09:fc:4b:78:91:be:81:
                    c4:7b:8c:4f:04:b3:83:63:4e:61:09:e4:fd:af:77:
                    af:13:a2:e4:30:01:66:4a:bb:74:9a:bd:06:fa:34:
                    4f:b0:7e:23:a2:f5:4e:03:e7:7b:ff:d5:12:65:9e:
                    a3:f2:0a:c5:55:44:26:e3:69:ec:ca:47:98:0c:d8:
                    b7:4b:3e:43:64:22:75:98:52:51:d9:b4:6b:26:fc:
                    4c:48:42:a9:70:28:26:3b:13:d8:03:09:4a:bf:28:
                    17:ea:b8:7f:99:c9:ed:5d:0c:00:13:9f:a7:19:b4:
                    ff:4b:23:6b:10:ef:f4:31:b8:6d:ba:9b:ed:c9:d4:
                    77:b8:09:d9:75:ca:db:ea:fc:03:4c:58:43:eb:f4:
                    f3:b5
                Exponent: 65537 (0x10001)
        X509v3 extensions:
            X509v3 Extended Key Usage: 
                TLS Web Client Authentication
            X509v3 CRL Distribution Points: 
                Full Name:
                  URI:http://www.example.com/example_ca.crl
            X509v3 Subject Key Identifier: 
                79:41:85:58:17:8A:F4:62:96:E8:30:29:EF:EE:25:F1:46:72:7B:6D
            X509v3 Authority Key Identifier: 
                CB:46:5E:5D:9F:58:56:A8:1B:55:C9:43:F7:6F:7C:E9:C2:33:EF:F1
    Signature Algorithm: sha256WithRSAEncryption
    Signature Value:
        3b:c8:54:57:ed:cc:5f:e0:1c:eb:d1:af:37:84:95:96:8c:2b:
        c0:70:81:4c:05:24:b7:c0:86:9e:d4:31:f0:b8:b4:63:f9:ab:
        01:c3:a7:fe:0a:66:23:00:35:fc:59:91:4c:0c:0d:2d:ef:ef:
        1a:06:51:7a:98:08:0d:7c:88:04:27:c1:89:ab:8a:c2:43:95:
        de:9e:cc:d2:62:fa:fb:ed:67:4a:dd:c6:fd:03:89:54:a0:31:
        13:63:16:18:dc:26:79:b2:bc:79:b0:b2:ef:18:e6:0a:c5:d3:
        1c:04:d5:ce:f5:f9:fc:75:2d:c7:35:c6:8c:08:13:44:98:9e:
        84:cb:10:c7:bb:cb:98:c3:62:23:9f:1f:f5:b4:1e:e3:3f:c8:
        4b:2d:e6:e5:f8:fc:79:e6:5a:12:17:92:02:2b:66:1f:4a:66:
        b6:07:ad:5e:dc:7d:f3:6e:58:e2:37:b2:f4:8c:83:13:20:ea:
        f2:dd:ca:2e:e3:a5:54:77:71:c6:a8:93:31:16:dd:df:74:0c:
        41:40:93:e5:1f:c2:7f:4f:e3:41:1e:a3:0e:8d:e8:5f:68:fd:
        f9:27:68:c0:86:f8:de:61:a5:69:23:cc:c6:fe:73:ff:56:5e:
        a7:06:bc:96:be:65:20:40:28:93:17:90:a2:13:b0:dd:2e:c8:
        46:de:f2:a4
-----BEGIN CERTIFICATE-----
MIIEDzCCAvegAwIBAgIBAjANBgkqhkiG9w0BAQsFADCBkzELMAkGA1UEBhMCRlIx
DzANBgNVBAgMBlJhZGl1czESMBAGA1UEBwwJU29tZXdoZXJlMRUwEwYDVQQKDAxF
eGFtcGxlIEluYy4xIDAeBgkqhkiG9w0BCQEWEWFkbWluQGV4YW1wbGUub3JnMSYw
JAYDVQQDDB1FeGFtcGxlIENlcnRpZmljYXRlIEF1dGhvcml0eTAeFw0yNDAyMjIx
NTM1NDlaFw0yNDA0MjIxNTM1NDlaMG8xCzAJBgNVBAYTAkZSMQ8wDQYDVQQIDAZS
YWRpdXMxFTATBgNVBAoMDEV4YW1wbGUgSW5jLjEYMBYGA1UEAwwPYm9iQGV4YW1w
bGUub3JnMR4wHAYJKoZIhvcNAQkBFg9ib2JAZXhhbXBsZS5vcmcwggEiMA0GCSqG
SIb3DQEBAQUAA4IBDwAwggEKAoIBAQC+zL2drXbK9rE6eaCnGbUm5pQe0W55ucPE
CGUAl/oXjEjaN812B2roVpSk0eD0gujt2OC/tfRykMMv4jh1ca6A5KLfbNgMhF2u
WzZnxggczH7/xZD2oBDOm1iCTFidTelQLcM2ilHz07fyEKeoaMvoCfxLeJG+gcR7
jE8Es4NjTmEJ5P2vd68TouQwAWZKu3SavQb6NE+wfiOi9U4D53v/1RJlnqPyCsVV
RCbjaezKR5gM2LdLPkNkInWYUlHZtGsm/ExIQqlwKCY7E9gDCUq/KBfquH+Zye1d
DAATn6cZtP9LI2sQ7/QxuG26m+3J1He4Cdl1ytvq/ANMWEPr9PO1AgMBAAGjgZAw
gY0wEwYDVR0lBAwwCgYIKwYBBQUHAwIwNgYDVR0fBC8wLTAroCmgJ4YlaHR0cDov
L3d3dy5leGFtcGxlLmNvbS9leGFtcGxlX2NhLmNybDAdBgNVHQ4EFgQUeUGFWBeK
9GKW6DAp7+4l8UZye20wHwYDVR0jBBgwFoAUy0ZeXZ9YVqgbVclD92986cIz7/Ew
DQYJKoZIhvcNAQELBQADggEBADvIVFftzF/gHOvRrzeElZaMK8BwgUwFJLfAhp7U
MfC4tGP5qwHDp/4KZiMANfxZkUwMDS3v7xoGUXqYCA18iAQnwYmrisJDld6ezNJi
+vvtZ0rdxv0DiVSgMRNjFhjcJnmyvHmwsu8Y5grF0xwE1c71+fx1Lcc1xowIE0SY
noTLEMe7y5jDYiOfH/W0HuM/yEst5uX4/HnmWhIXkgIrZh9KZrYHrV7cffNuWOI3
svSMgxMg6vLdyi7jpVR3ccaokzEW3d90DEFAk+Ufwn9P40Eeow6N6F9o/fknaMCG
+N5hpWkjzMb+c/9WXqcGvJa+ZSBAKJMXkKITsN0uyEbe8qQ=
-----END CERTIFICATE-----
