Certificate:
    Data:
        Version: 3 (0x2)
        Serial Number: 2 (0x2)
        Signature Algorithm: sha256WithRSAEncryption
        Issuer: C=FR, ST=Radius, L=Somewhere, O=Example Inc./emailAddress=admin@example.org, CN=Example Certificate Authority
        Validity
            Not Before: Dec 23 16:54:55 2023 GMT
            Not After : Feb 21 16:54:55 2024 GMT
        Subject: C=FR, ST=Radius, O=Example Inc., CN=bob@example.org/emailAddress=bob@example.org
        Subject Public Key Info:
            Public Key Algorithm: rsaEncryption
                Public-Key: (2048 bit)
                Modulus:
                    00:dc:6f:36:a9:e9:76:77:0d:93:3b:1c:7d:27:d3:
                    3a:85:6b:0a:a2:f2:7d:bb:17:e1:2b:ea:3b:6e:b9:
                    50:cc:c3:6f:a7:82:04:8b:32:6f:c7:da:fe:61:49:
                    da:27:d4:85:4d:28:87:0b:03:bc:b3:86:99:3b:d5:
                    96:c8:78:bb:c8:08:43:0f:0e:b4:c4:51:87:6c:5f:
                    30:93:7e:96:0c:24:a0:57:9f:57:45:9d:52:18:9c:
                    ce:d0:22:c0:54:1b:8b:6f:7e:83:fc:e0:35:84:e3:
                    45:35:96:53:23:dd:16:ea:52:4a:9a:30:ca:a1:cd:
                    96:7c:56:3e:1d:5d:a8:e1:6d:70:92:f5:ac:c7:f5:
                    26:2e:de:cc:46:eb:fe:ed:3f:e6:87:2c:56:bf:1d:
                    a5:6b:00:03:d5:7d:a6:37:c8:f3:d2:04:8f:8d:39:
                    fd:d8:0e:0d:a9:97:cc:62:c2:9f:97:7b:b0:10:22:
                    f8:68:cf:03:7e:38:fe:bc:be:a7:32:26:14:ac:9c:
                    da:78:0c:40:fb:6b:fa:09:02:af:e0:4d:7a:99:06:
                    db:be:04:0c:1f:24:b7:d9:d5:18:69:a2:0a:cd:81:
                    c9:c1:f8:b6:23:fe:8b:a4:56:b8:79:3a:8c:25:8a:
                    08:a0:ae:cc:5d:54:a5:cb:6e:83:fc:fd:96:d3:18:
                    9b:8f
                Exponent: 65537 (0x10001)
        X509v3 extensions:
            X509v3 Extended Key Usage: 
                TLS Web Client Authentication
            X509v3 CRL Distribution Points: 
                Full Name:
                  URI:http://www.example.com/example_ca.crl
            X509v3 Subject Key Identifier: 
                45:96:87:01:B9:23:B7:34:6E:86:A5:A1:99:27:17:C6:57:D9:26:4A
            X509v3 Authority Key Identifier: 
                8D:E7:60:A3:33:42:93:1B:5F:F1:C7:14:C1:B5:64:CE:3F:6D:28:26
    Signature Algorithm: sha256WithRSAEncryption
    Signature Value:
        24:20:12:76:78:4e:f2:e0:e0:21:46:d2:98:82:ba:29:78:f5:
        f6:5b:4b:3a:e6:62:4e:75:47:14:50:7b:15:1f:03:74:19:36:
        86:f8:b4:e6:de:e9:06:21:ec:5f:4d:f9:43:cd:e9:c0:50:46:
        6a:48:d5:07:87:57:4c:a5:f2:b7:6e:1d:2a:5b:60:e5:81:4e:
        23:e7:0c:28:72:a7:cc:2e:51:ea:51:49:80:0b:bb:c6:a2:9b:
        3e:d8:f9:d9:d9:bc:1b:33:ba:a4:44:7f:79:fa:38:cd:23:8d:
        38:f6:19:41:14:65:d8:52:18:7b:48:1c:ab:67:eb:fb:93:c4:
        3c:e4:64:a6:1e:a0:3b:27:ed:ab:41:7c:8a:91:ef:68:90:bf:
        5e:3e:7d:01:a5:a3:c4:5d:c8:d5:61:2e:2c:f5:98:32:f3:11:
        78:99:8c:9e:bf:f8:a4:88:73:d4:de:f3:d8:af:85:43:b5:a0:
        47:53:03:3f:b3:fc:4c:ec:52:4d:78:b4:3a:67:a8:10:ab:2b:
        24:87:2d:02:94:73:e8:1c:0a:84:9d:ec:d1:ff:2b:69:34:06:
        38:c6:da:fd:8f:f8:04:f2:dd:11:3a:da:52:08:25:53:66:24:
        b2:74:b9:16:68:39:de:8c:de:f4:f5:0d:d8:a2:5f:1d:10:bc:
        02:c0:95:40
-----BEGIN CERTIFICATE-----
MIIEDzCCAvegAwIBAgIBAjANBgkqhkiG9w0BAQsFADCBkzELMAkGA1UEBhMCRlIx
DzANBgNVBAgMBlJhZGl1czESMBAGA1UEBwwJU29tZXdoZXJlMRUwEwYDVQQKDAxF
eGFtcGxlIEluYy4xIDAeBgkqhkiG9w0BCQEWEWFkbWluQGV4YW1wbGUub3JnMSYw
JAYDVQQDDB1FeGFtcGxlIENlcnRpZmljYXRlIEF1dGhvcml0eTAeFw0yMzEyMjMx
NjU0NTVaFw0yNDAyMjExNjU0NTVaMG8xCzAJBgNVBAYTAkZSMQ8wDQYDVQQIDAZS
YWRpdXMxFTATBgNVBAoMDEV4YW1wbGUgSW5jLjEYMBYGA1UEAwwPYm9iQGV4YW1w
bGUub3JnMR4wHAYJKoZIhvcNAQkBFg9ib2JAZXhhbXBsZS5vcmcwggEiMA0GCSqG
SIb3DQEBAQUAA4IBDwAwggEKAoIBAQDcbzap6XZ3DZM7HH0n0zqFawqi8n27F+Er
6jtuuVDMw2+nggSLMm/H2v5hSdon1IVNKIcLA7yzhpk71ZbIeLvICEMPDrTEUYds
XzCTfpYMJKBXn1dFnVIYnM7QIsBUG4tvfoP84DWE40U1llMj3RbqUkqaMMqhzZZ8
Vj4dXajhbXCS9azH9SYu3sxG6/7tP+aHLFa/HaVrAAPVfaY3yPPSBI+NOf3YDg2p
l8xiwp+Xe7AQIvhozwN+OP68vqcyJhSsnNp4DED7a/oJAq/gTXqZBtu+BAwfJLfZ
1RhpogrNgcnB+LYj/oukVrh5OowligigrsxdVKXLboP8/ZbTGJuPAgMBAAGjgZAw
gY0wEwYDVR0lBAwwCgYIKwYBBQUHAwIwNgYDVR0fBC8wLTAroCmgJ4YlaHR0cDov
L3d3dy5leGFtcGxlLmNvbS9leGFtcGxlX2NhLmNybDAdBgNVHQ4EFgQURZaHAbkj
tzRuhqWhmScXxlfZJkowHwYDVR0jBBgwFoAUjedgozNCkxtf8ccUwbVkzj9tKCYw
DQYJKoZIhvcNAQELBQADggEBACQgEnZ4TvLg4CFG0piCuil49fZbSzrmYk51RxRQ
exUfA3QZNob4tObe6QYh7F9N+UPN6cBQRmpI1QeHV0yl8rduHSpbYOWBTiPnDChy
p8wuUepRSYALu8aimz7Y+dnZvBszuqREf3n6OM0jjTj2GUEUZdhSGHtIHKtn6/uT
xDzkZKYeoDsn7atBfIqR72iQv14+fQGlo8RdyNVhLiz1mDLzEXiZjJ6/+KSIc9Te
89ivhUO1oEdTAz+z/EzsUk14tDpnqBCrKySHLQKUc+gcCoSd7NH/K2k0BjjG2v2P
+ATy3RE62lIIJVNmJLJ0uRZoOd6M3vT1DdiiXx0QvALAlUA=
-----END CERTIFICATE-----
