Certificate:
    Data:
        Version: 3 (0x2)
        Serial Number: 1 (0x1)
        Signature Algorithm: sha256WithRSAEncryption
        Issuer: C=FR, ST=Radius, L=Somewhere, O=Example Inc./emailAddress=admin@example.org, CN=Example Certificate Authority
        Validity
            Not Before: Dec 23 16:55:48 2023 GMT
            Not After : Feb 21 16:55:48 2024 GMT
        Subject: C=FR, ST=Radius, O=Example Inc., CN=Example Server Certificate/emailAddress=admin@example.org
        Subject Public Key Info:
            Public Key Algorithm: rsaEncryption
                Public-Key: (2048 bit)
                Modulus:
                    00:f5:61:e8:d8:b4:f5:1f:66:01:f1:5b:b4:90:a3:
                    ac:8e:be:cb:3e:68:bd:25:68:c0:ab:f2:f6:e2:24:
                    14:e0:dc:21:3f:64:9f:85:1e:b8:c0:f7:9f:49:fe:
                    e9:26:cc:95:15:9f:bd:8b:8a:4e:df:b4:d2:df:c9:
                    b0:3d:4a:84:88:40:e0:a0:fc:d6:d7:4e:e1:c1:07:
                    da:98:c2:fc:24:b8:c1:d5:b5:00:10:ec:d9:8c:9b:
                    f3:59:d2:d1:73:13:c1:c1:76:c5:26:de:db:01:67:
                    77:a9:d3:8f:6f:43:fa:41:e2:45:df:2a:16:2e:aa:
                    ae:ea:bc:c2:59:55:64:4a:5b:c0:e8:f2:1f:4f:3b:
                    b1:80:43:44:9c:c0:3d:1a:72:2a:21:35:8f:33:01:
                    17:4f:76:31:83:9d:5f:72:28:88:e0:2a:0c:e4:b3:
                    c9:eb:0b:3d:83:6c:db:ef:6b:4a:55:14:64:7b:19:
                    19:93:83:8b:8f:e7:1f:8c:a5:ce:6d:82:f0:7b:27:
                    a1:e5:c2:45:d3:37:aa:70:89:43:1f:aa:96:53:5e:
                    7c:b9:a4:0b:5f:bc:25:f4:d8:a6:75:f4:2e:75:2b:
                    9a:9f:75:e8:cc:5c:f3:80:74:e1:97:06:cf:39:0e:
                    8d:03:9d:18:24:f1:88:07:c7:cc:78:33:8a:81:52:
                    bf:27
                Exponent: 65537 (0x10001)
        X509v3 extensions:
            X509v3 Extended Key Usage: 
                TLS Web Server Authentication
            X509v3 CRL Distribution Points: 
                Full Name:
                  URI:http://www.example.com/example_ca.crl
            X509v3 Subject Key Identifier: 
                E7:7E:A7:50:8D:44:38:CD:BB:07:4D:60:E4:D8:10:F1:63:2C:C4:9F
            X509v3 Authority Key Identifier: 
                A2:CB:3A:38:CF:BC:D1:2F:F3:CA:DC:87:C5:6F:CB:5B:BE:BF:A9:CF
    Signature Algorithm: sha256WithRSAEncryption
    Signature Value:
        3f:b9:74:6a:73:74:a8:c8:fc:a7:ad:7f:13:c8:54:fe:e6:1d:
        6a:bd:c3:a6:20:b1:99:17:2d:a5:30:82:b5:d0:8c:81:fa:fe:
        fa:ff:2f:55:d0:56:df:45:75:f8:21:41:bc:4c:43:d9:72:77:
        2c:03:d8:c0:d1:a2:41:2d:ee:b2:b1:b6:24:fd:8b:7f:34:93:
        4a:ac:cd:9b:a7:56:26:86:4b:ef:87:a3:0b:1a:1c:1c:bc:ba:
        af:81:12:18:01:e1:56:1c:78:fa:9e:6c:6a:45:8d:92:05:d6:
        26:45:2b:45:eb:fd:c5:d2:36:f5:ce:be:7b:52:6d:66:2e:8d:
        0c:33:36:e0:80:4a:8a:79:5a:82:1a:8d:fe:a6:2d:43:c6:3b:
        bb:69:4a:de:ed:59:03:62:a6:5c:8a:26:5e:ae:3c:d7:1b:43:
        0a:3d:fe:2e:df:a8:87:fa:58:16:57:7a:b1:22:3a:e5:11:b3:
        f2:e3:7c:d2:50:f6:22:f0:68:aa:ca:39:41:e0:a5:4a:8e:f6:
        e2:36:11:48:71:33:3a:c2:76:37:98:f7:31:81:d7:5c:40:8e:
        aa:d4:82:91:d2:ba:c0:94:00:dc:45:fc:15:3b:29:d6:1a:00:
        89:6c:94:15:f6:f4:ce:2b:d8:d4:a9:8c:10:5a:4c:48:0e:11:
        cb:8b:51:90
-----BEGIN CERTIFICATE-----
MIIEHDCCAwSgAwIBAgIBATANBgkqhkiG9w0BAQsFADCBkzELMAkGA1UEBhMCRlIx
DzANBgNVBAgMBlJhZGl1czESMBAGA1UEBwwJU29tZXdoZXJlMRUwEwYDVQQKDAxF
eGFtcGxlIEluYy4xIDAeBgkqhkiG9w0BCQEWEWFkbWluQGV4YW1wbGUub3JnMSYw
JAYDVQQDDB1FeGFtcGxlIENlcnRpZmljYXRlIEF1dGhvcml0eTAeFw0yMzEyMjMx
NjU1NDhaFw0yNDAyMjExNjU1NDhaMHwxCzAJBgNVBAYTAkZSMQ8wDQYDVQQIDAZS
YWRpdXMxFTATBgNVBAoMDEV4YW1wbGUgSW5jLjEjMCEGA1UEAwwaRXhhbXBsZSBT
ZXJ2ZXIgQ2VydGlmaWNhdGUxIDAeBgkqhkiG9w0BCQEWEWFkbWluQGV4YW1wbGUu
b3JnMIIBIjANBgkqhkiG9w0BAQEFAAOCAQ8AMIIBCgKCAQEA9WHo2LT1H2YB8Vu0
kKOsjr7LPmi9JWjAq/L24iQU4NwhP2SfhR64wPefSf7pJsyVFZ+9i4pO37TS38mw
PUqEiEDgoPzW107hwQfamML8JLjB1bUAEOzZjJvzWdLRcxPBwXbFJt7bAWd3qdOP
b0P6QeJF3yoWLqqu6rzCWVVkSlvA6PIfTzuxgENEnMA9GnIqITWPMwEXT3Yxg51f
ciiI4CoM5LPJ6ws9g2zb72tKVRRkexkZk4OLj+cfjKXObYLweyeh5cJF0zeqcIlD
H6qWU158uaQLX7wl9NimdfQudSuan3XozFzzgHThlwbPOQ6NA50YJPGIB8fMeDOK
gVK/JwIDAQABo4GQMIGNMBMGA1UdJQQMMAoGCCsGAQUFBwMBMDYGA1UdHwQvMC0w
K6ApoCeGJWh0dHA6Ly93d3cuZXhhbXBsZS5jb20vZXhhbXBsZV9jYS5jcmwwHQYD
VR0OBBYEFOd+p1CNRDjNuwdNYOTYEPFjLMSfMB8GA1UdIwQYMBaAFKLLOjjPvNEv
88rch8Vvy1u+v6nPMA0GCSqGSIb3DQEBCwUAA4IBAQA/uXRqc3SoyPynrX8TyFT+
5h1qvcOmILGZFy2lMIK10IyB+v76/y9V0FbfRXX4IUG8TEPZcncsA9jA0aJBLe6y
sbYk/Yt/NJNKrM2bp1Ymhkvvh6MLGhwcvLqvgRIYAeFWHHj6nmxqRY2SBdYmRStF
6/3F0jb1zr57Um1mLo0MMzbggEqKeVqCGo3+pi1Dxju7aUre7VkDYqZciiZerjzX
G0MKPf4u36iH+lgWV3qxIjrlEbPy43zSUPYi8GiqyjlB4KVKjvbiNhFIcTM6wnY3
mPcxgddcQI6q1IKR0rrAlADcRfwVOynWGgCJbJQV9vTOK9jUqYwQWkxIDhHLi1GQ
-----END CERTIFICATE-----
