Certificate:
    Data:
        Version: 3 (0x2)
        Serial Number: 2 (0x2)
        Signature Algorithm: sha256WithRSAEncryption
        Issuer: C=FR, ST=Radius, L=Somewhere, O=Example Inc./emailAddress=admin@example.org, CN=Example Certificate Authority
        Validity
            Not Before: Dec 20 14:41:02 2023 GMT
            Not After : Feb 18 14:41:02 2024 GMT
        Subject: C=FR, ST=Radius, O=Example Inc., CN=bob@example.org/emailAddress=bob@example.org
        Subject Public Key Info:
            Public Key Algorithm: rsaEncryption
                Public-Key: (2048 bit)
                Modulus:
                    00:a8:85:6f:46:45:c6:e1:28:5a:ac:bb:8d:43:87:
                    5d:e0:29:11:3b:82:4f:f0:f9:6f:c3:df:99:32:f4:
                    0d:62:99:cb:51:0e:63:1b:87:d6:24:8a:80:4b:32:
                    82:eb:49:f4:5e:09:71:d0:e6:79:bd:1a:42:78:d8:
                    20:0a:1e:10:8f:6f:06:65:3e:11:8e:e6:03:8a:6e:
                    60:5e:93:f5:d5:43:e3:9b:52:71:43:c4:29:46:4c:
                    fb:41:53:fb:c8:25:6a:6b:8a:88:91:f4:dd:2b:2f:
                    ce:c6:0a:49:33:26:d2:d6:94:9d:a3:7b:8e:c7:63:
                    b8:af:dc:69:30:24:fb:75:7e:e1:d7:8b:05:28:f5:
                    01:47:28:49:16:7d:f7:d3:6b:37:5f:61:76:b4:8e:
                    eb:3a:9c:af:67:8d:8f:72:ce:01:13:7f:99:73:20:
                    f0:d9:96:3f:f2:6a:a0:22:da:c2:41:a1:98:34:f7:
                    f9:b9:d0:c2:ef:62:50:85:c1:f5:b8:82:3d:bd:7f:
                    4d:a7:5d:35:63:d0:a0:84:10:ec:5c:61:c0:c1:e5:
                    26:f7:64:a5:9b:e7:3d:89:e4:10:8b:f5:3c:12:4d:
                    f9:22:4d:43:4b:b0:7a:2b:98:b6:aa:c2:50:77:d6:
                    de:ac:d1:f3:ef:05:24:47:05:f1:0a:b0:49:61:23:
                    5b:1b
                Exponent: 65537 (0x10001)
        X509v3 extensions:
            X509v3 Extended Key Usage: 
                TLS Web Client Authentication
            X509v3 CRL Distribution Points: 
                Full Name:
                  URI:http://www.example.com/example_ca.crl
            X509v3 Subject Key Identifier: 
                E4:D1:56:41:C3:2B:C4:FF:86:83:F7:04:29:D1:45:CF:03:88:4F:4B
            X509v3 Authority Key Identifier: 
                54:7E:9E:86:EA:DB:16:E9:5A:57:69:B5:60:48:BB:F6:39:8F:33:04
    Signature Algorithm: sha256WithRSAEncryption
    Signature Value:
        7b:6e:ff:d2:33:2c:5b:a7:ec:d3:50:22:25:bb:41:61:1a:a9:
        75:2b:be:a9:08:e7:7c:47:68:4d:b1:35:53:65:2c:c3:84:59:
        17:0c:f4:32:17:32:9b:a1:5f:34:d9:fb:35:1e:b8:ed:74:b1:
        1f:00:92:ed:5d:dd:53:3f:30:3c:14:29:02:8e:c3:4c:be:62:
        b8:6a:87:1c:42:c3:d8:24:bd:16:d7:cc:c5:a7:ee:58:c6:ad:
        77:23:dc:24:cf:a0:7d:cb:9a:b8:5f:c2:0a:bc:73:1b:23:20:
        48:d1:37:f7:e0:83:ff:3b:23:44:d4:65:0c:c7:37:cb:72:93:
        8e:a7:1c:57:ff:08:b5:47:44:7f:20:57:a9:a2:a9:c0:e3:40:
        61:f7:c2:22:52:b5:93:f6:6c:2f:74:e8:11:59:e3:c3:cd:41:
        67:da:9b:34:5d:32:47:16:b2:08:bf:c1:81:25:24:24:57:af:
        b7:36:d0:b9:ff:d7:5d:a5:dd:21:f3:b7:43:a1:69:18:48:0e:
        56:bb:1c:61:43:53:a3:7a:df:3a:14:e5:b6:d4:0e:92:51:a2:
        aa:ae:76:70:c7:83:14:56:cb:96:aa:36:f0:f9:73:45:4d:a0:
        28:c9:18:7b:58:65:49:60:82:29:64:90:f4:76:46:d6:0d:e0:
        40:92:0f:43
-----BEGIN CERTIFICATE-----
MIIEDzCCAvegAwIBAgIBAjANBgkqhkiG9w0BAQsFADCBkzELMAkGA1UEBhMCRlIx
DzANBgNVBAgMBlJhZGl1czESMBAGA1UEBwwJU29tZXdoZXJlMRUwEwYDVQQKDAxF
eGFtcGxlIEluYy4xIDAeBgkqhkiG9w0BCQEWEWFkbWluQGV4YW1wbGUub3JnMSYw
JAYDVQQDDB1FeGFtcGxlIENlcnRpZmljYXRlIEF1dGhvcml0eTAeFw0yMzEyMjAx
NDQxMDJaFw0yNDAyMTgxNDQxMDJaMG8xCzAJBgNVBAYTAkZSMQ8wDQYDVQQIDAZS
YWRpdXMxFTATBgNVBAoMDEV4YW1wbGUgSW5jLjEYMBYGA1UEAwwPYm9iQGV4YW1w
bGUub3JnMR4wHAYJKoZIhvcNAQkBFg9ib2JAZXhhbXBsZS5vcmcwggEiMA0GCSqG
SIb3DQEBAQUAA4IBDwAwggEKAoIBAQCohW9GRcbhKFqsu41Dh13gKRE7gk/w+W/D
35ky9A1imctRDmMbh9YkioBLMoLrSfReCXHQ5nm9GkJ42CAKHhCPbwZlPhGO5gOK
bmBek/XVQ+ObUnFDxClGTPtBU/vIJWprioiR9N0rL87GCkkzJtLWlJ2je47HY7iv
3GkwJPt1fuHXiwUo9QFHKEkWfffTazdfYXa0jus6nK9njY9yzgETf5lzIPDZlj/y
aqAi2sJBoZg09/m50MLvYlCFwfW4gj29f02nXTVj0KCEEOxcYcDB5Sb3ZKWb5z2J
5BCL9TwSTfkiTUNLsHormLaqwlB31t6s0fPvBSRHBfEKsElhI1sbAgMBAAGjgZAw
gY0wEwYDVR0lBAwwCgYIKwYBBQUHAwIwNgYDVR0fBC8wLTAroCmgJ4YlaHR0cDov
L3d3dy5leGFtcGxlLmNvbS9leGFtcGxlX2NhLmNybDAdBgNVHQ4EFgQU5NFWQcMr
xP+Gg/cEKdFFzwOIT0swHwYDVR0jBBgwFoAUVH6ehurbFulaV2m1YEi79jmPMwQw
DQYJKoZIhvcNAQELBQADggEBAHtu/9IzLFun7NNQIiW7QWEaqXUrvqkI53xHaE2x
NVNlLMOEWRcM9DIXMpuhXzTZ+zUeuO10sR8Aku1d3VM/MDwUKQKOw0y+YrhqhxxC
w9gkvRbXzMWn7ljGrXcj3CTPoH3Lmrhfwgq8cxsjIEjRN/fgg/87I0TUZQzHN8ty
k46nHFf/CLVHRH8gV6miqcDjQGH3wiJStZP2bC906BFZ48PNQWfamzRdMkcWsgi/
wYElJCRXr7c20Ln/112l3SHzt0OhaRhIDla7HGFDU6N63zoU5bbUDpJRoqqudnDH
gxRWy5aqNvD5c0VNoCjJGHtYZUlggilkkPR2RtYN4ECSD0M=
-----END CERTIFICATE-----
