Certificate:
    Data:
        Version: 3 (0x2)
        Serial Number: 2 (0x2)
        Signature Algorithm: sha256WithRSAEncryption
        Issuer: C=GL, ST=New World, L=Raftel, O=Straw Hat Networking/emailAddress=ca@strawhat.com, CN=ca.strawhat.com
        Validity
            Not Before: Dec 16 09:11:32 2023 GMT
            Not After : Feb 14 09:11:32 2024 GMT
        Subject: C=GL, ST=New World, O=Straw Hat Networking, CN=luffy@strawhat.com/emailAddress=luffy@strawhat.com
        Subject Public Key Info:
            Public Key Algorithm: rsaEncryption
                Public-Key: (2048 bit)
                Modulus:
                    00:b8:e5:94:a9:80:62:d7:75:ac:45:c0:cb:15:33:
                    5e:9d:a7:98:ed:f9:6b:3e:0c:bc:5a:59:bd:55:ea:
                    f2:0a:9c:dd:c2:ea:a8:3d:7f:ac:e1:fd:b7:f1:2e:
                    c3:5e:6e:aa:d0:8e:86:bb:c2:27:2a:4a:61:53:a7:
                    b7:39:f5:ad:60:ee:9c:64:86:47:5e:70:51:98:fd:
                    40:41:19:90:b6:86:14:65:2c:55:2d:4b:e1:23:13:
                    05:39:23:03:fb:89:b9:f4:aa:b8:7b:a6:ee:a8:0f:
                    06:e3:7b:03:ba:4b:f0:60:2c:fb:5f:e1:b4:f9:ee:
                    0f:60:44:ac:25:4e:a7:f4:a9:b0:04:9e:7f:1a:c0:
                    e6:7c:0a:45:76:6c:8e:ca:e8:ba:6c:6f:eb:32:2e:
                    5a:36:dc:24:37:2a:d3:d3:90:86:ad:4d:16:86:c6:
                    5b:f5:5e:26:a2:2e:68:06:bd:05:b3:fb:4a:84:c7:
                    fe:0d:16:85:94:55:55:85:45:f8:53:f8:93:69:36:
                    65:32:66:2b:99:17:86:ef:21:68:0c:ee:5c:49:72:
                    43:b5:a2:9d:1f:f2:d9:b8:56:a8:ba:6a:b2:98:26:
                    27:1b:b5:b8:78:e5:3c:79:ed:19:09:01:0c:33:a8:
                    51:71:7e:45:e1:a3:de:21:b4:e9:44:9d:dc:b4:bc:
                    07:5f
                Exponent: 65537 (0x10001)
        X509v3 extensions:
            X509v3 Extended Key Usage: 
                TLS Web Client Authentication
            X509v3 CRL Distribution Points: 
                Full Name:
                  URI:http://www.strawhat.com/ca.crl
            X509v3 Subject Key Identifier: 
                13:DF:F8:0E:38:A1:AC:1A:B5:DD:0B:7B:18:5F:5B:9E:95:8F:DF:38
            X509v3 Authority Key Identifier: 
                4A:E4:F0:89:12:82:1D:4D:83:53:D3:43:BC:18:D2:32:0C:EC:F1:6D
    Signature Algorithm: sha256WithRSAEncryption
    Signature Value:
        43:31:53:50:0e:c8:c1:19:5b:50:19:fa:63:24:ee:e5:ce:5c:
        62:70:cf:01:80:da:1a:69:31:ff:d0:c0:dc:bb:1e:61:f4:6e:
        e2:13:90:98:0a:44:40:a7:8f:28:eb:13:1a:d3:2b:85:c8:6e:
        b2:e2:f3:71:a0:81:d3:46:be:c8:2b:4e:cc:5c:eb:42:c3:a1:
        a4:36:d4:c7:2a:15:b8:8e:dc:86:73:06:86:6f:3d:0e:06:b8:
        7b:93:8b:fe:ce:05:d6:c8:89:53:57:4a:fa:37:8a:41:09:1b:
        03:f2:ad:75:01:d1:45:ad:a6:fb:42:7f:bf:40:9c:98:ee:16:
        80:0c:5b:e4:19:42:32:28:33:6f:dd:0d:c0:27:7f:f8:5e:ad:
        f1:47:f9:58:4d:63:54:b6:82:d0:79:32:5a:f4:66:df:d4:bb:
        0e:19:a1:ac:48:74:2d:7d:8d:0a:92:3e:12:34:f5:99:f3:09:
        0b:47:37:bd:f3:9c:fe:3e:70:42:fe:b4:9c:32:4c:ec:38:5e:
        95:6e:b9:1e:76:0d:09:48:51:73:6d:f2:b5:75:42:ad:79:27:
        2a:72:4d:a4:60:4f:87:e0:70:b9:95:64:3b:eb:0e:54:36:f6:
        44:1a:8c:9a:fd:eb:2b:42:dd:1f:1e:16:79:c8:4e:c1:d1:22:
        d9:6e:ba:02
-----BEGIN CERTIFICATE-----
MIIEEjCCAvqgAwIBAgIBAjANBgkqhkiG9w0BAQsFADCBizELMAkGA1UEBhMCR0wx
EjAQBgNVBAgMCU5ldyBXb3JsZDEPMA0GA1UEBwwGUmFmdGVsMR0wGwYDVQQKDBRT
dHJhdyBIYXQgTmV0d29ya2luZzEeMBwGCSqGSIb3DQEJARYPY2FAc3RyYXdoYXQu
Y29tMRgwFgYDVQQDDA9jYS5zdHJhd2hhdC5jb20wHhcNMjMxMjE2MDkxMTMyWhcN
MjQwMjE0MDkxMTMyWjCBgDELMAkGA1UEBhMCR0wxEjAQBgNVBAgMCU5ldyBXb3Js
ZDEdMBsGA1UECgwUU3RyYXcgSGF0IE5ldHdvcmtpbmcxGzAZBgNVBAMMEmx1ZmZ5
QHN0cmF3aGF0LmNvbTEhMB8GCSqGSIb3DQEJARYSbHVmZnlAc3RyYXdoYXQuY29t
MIIBIjANBgkqhkiG9w0BAQEFAAOCAQ8AMIIBCgKCAQEAuOWUqYBi13WsRcDLFTNe
naeY7flrPgy8Wlm9VeryCpzdwuqoPX+s4f238S7DXm6q0I6Gu8InKkphU6e3OfWt
YO6cZIZHXnBRmP1AQRmQtoYUZSxVLUvhIxMFOSMD+4m59Kq4e6buqA8G43sDukvw
YCz7X+G0+e4PYESsJU6n9KmwBJ5/GsDmfApFdmyOyui6bG/rMi5aNtwkNyrT05CG
rU0WhsZb9V4moi5oBr0Fs/tKhMf+DRaFlFVVhUX4U/iTaTZlMmYrmReG7yFoDO5c
SXJDtaKdH/LZuFaoumqymCYnG7W4eOU8ee0ZCQEMM6hRcX5F4aPeIbTpRJ3ctLwH
XwIDAQABo4GJMIGGMBMGA1UdJQQMMAoGCCsGAQUFBwMCMC8GA1UdHwQoMCYwJKAi
oCCGHmh0dHA6Ly93d3cuc3RyYXdoYXQuY29tL2NhLmNybDAdBgNVHQ4EFgQUE9/4
DjihrBq13Qt7GF9bnpWP3zgwHwYDVR0jBBgwFoAUSuTwiRKCHU2DU9NDvBjSMgzs
8W0wDQYJKoZIhvcNAQELBQADggEBAEMxU1AOyMEZW1AZ+mMk7uXOXGJwzwGA2hpp
Mf/QwNy7HmH0buITkJgKRECnjyjrExrTK4XIbrLi83GggdNGvsgrTsxc60LDoaQ2
1McqFbiO3IZzBoZvPQ4GuHuTi/7OBdbIiVNXSvo3ikEJGwPyrXUB0UWtpvtCf79A
nJjuFoAMW+QZQjIoM2/dDcAnf/herfFH+VhNY1S2gtB5Mlr0Zt/Uuw4ZoaxIdC19
jQqSPhI09ZnzCQtHN73znP4+cEL+tJwyTOw4XpVuuR52DQlIUXNt8rV1Qq15Jypy
TaRgT4fgcLmVZDvrDlQ29kQajJr96ytC3R8eFnnITsHRItluugI=
-----END CERTIFICATE-----
