Certificate:
    Data:
        Version: 3 (0x2)
        Serial Number: 2 (0x2)
        Signature Algorithm: sha256WithRSAEncryption
        Issuer: C=FR, ST=Radius, L=Somewhere, O=Example Inc./emailAddress=admin@example.org, CN=Example Certificate Authority
        Validity
            Not Before: Dec 23 16:55:50 2023 GMT
            Not After : Feb 21 16:55:50 2024 GMT
        Subject: C=FR, ST=Radius, O=Example Inc., CN=bob@example.org/emailAddress=bob@example.org
        Subject Public Key Info:
            Public Key Algorithm: rsaEncryption
                Public-Key: (2048 bit)
                Modulus:
                    00:af:51:05:43:d8:f8:f4:88:eb:d3:ea:36:d7:29:
                    1a:de:5f:e5:57:0c:b8:5b:a4:66:06:e7:30:c4:74:
                    e5:cf:f6:87:4f:0d:79:29:eb:5d:91:07:52:7c:06:
                    2f:7a:18:5e:f0:81:68:8d:b6:dd:d9:bf:92:38:76:
                    c2:d1:64:8d:76:58:42:b9:a9:0f:6f:ff:18:40:6b:
                    8c:76:f0:2f:07:0b:71:46:25:14:ad:b7:04:cc:dc:
                    c3:92:e2:1f:44:a2:2b:d4:6e:f5:e6:e9:64:c1:57:
                    4c:d9:09:77:24:b4:1c:d1:18:71:4d:d8:d8:f4:a4:
                    cd:1f:21:76:31:6a:52:cb:1a:64:ce:f0:1d:67:f2:
                    d5:f5:34:22:fb:e7:49:fd:e3:e3:97:07:0d:32:4b:
                    70:4b:23:44:32:90:1b:95:71:ec:8d:70:f4:ac:7e:
                    96:6a:ca:7d:fa:82:85:c7:b6:8f:2c:b6:d3:8b:1f:
                    bf:81:39:5f:6c:14:57:fa:4c:79:f5:9b:e4:5d:ef:
                    6f:a3:67:3c:3d:05:34:90:4b:6d:05:c5:b1:8d:bb:
                    ab:b1:bc:c6:31:94:c9:d2:b9:04:ca:e9:ec:e8:4b:
                    28:94:e2:df:c7:34:12:cf:fd:d5:d1:00:5a:e6:8a:
                    af:94:be:67:50:4a:08:38:43:c4:bb:8c:c2:41:7a:
                    6f:8f
                Exponent: 65537 (0x10001)
        X509v3 extensions:
            X509v3 Extended Key Usage: 
                TLS Web Client Authentication
            X509v3 CRL Distribution Points: 
                Full Name:
                  URI:http://www.example.com/example_ca.crl
            X509v3 Subject Key Identifier: 
                19:7D:4F:C2:50:00:E3:EC:D2:E5:A5:A0:89:5B:0E:77:BF:2C:33:B1
            X509v3 Authority Key Identifier: 
                A2:CB:3A:38:CF:BC:D1:2F:F3:CA:DC:87:C5:6F:CB:5B:BE:BF:A9:CF
    Signature Algorithm: sha256WithRSAEncryption
    Signature Value:
        6a:87:a3:41:de:ca:bd:c1:e2:88:dd:c9:d9:a1:93:a0:a0:8c:
        b6:b9:ac:8c:a0:b9:8a:84:71:48:f0:e9:e0:bd:bb:2d:8e:16:
        43:7e:ed:ed:0d:db:95:da:bc:d9:01:27:4d:16:78:a6:83:6a:
        be:fc:ea:96:1a:35:b4:71:49:b9:da:2d:53:87:0b:1f:c8:71:
        fd:7a:7e:51:41:19:0c:41:ab:ab:c3:1e:79:72:e5:09:0f:c2:
        0a:85:21:74:fb:44:ec:c6:75:8a:1f:18:3b:a7:4b:25:a0:26:
        12:da:fc:e6:c8:cd:4f:55:6b:f1:7f:d9:19:d6:02:ea:a7:50:
        f6:91:c5:a6:a6:b6:b5:17:2b:36:93:4f:a4:79:d5:8d:39:6a:
        ba:a4:99:a3:9e:81:da:62:a3:04:56:d5:ac:46:50:9e:ac:f2:
        a3:7e:5d:7e:c4:41:11:b5:aa:00:36:e9:cb:ac:95:08:26:9e:
        4a:11:2a:50:7d:da:63:d6:36:fe:6d:52:6f:f3:12:56:5d:c7:
        c6:62:5b:ce:ed:88:20:6a:d5:79:a7:d5:54:cd:a2:44:46:5e:
        31:fa:30:b7:fd:40:c2:c7:f3:6a:b9:4d:98:95:ba:31:8a:6e:
        77:48:ea:f3:fd:b8:b4:47:78:37:c5:a7:83:5b:6e:c6:25:43:
        55:c5:57:73
-----BEGIN CERTIFICATE-----
MIIEDzCCAvegAwIBAgIBAjANBgkqhkiG9w0BAQsFADCBkzELMAkGA1UEBhMCRlIx
DzANBgNVBAgMBlJhZGl1czESMBAGA1UEBwwJU29tZXdoZXJlMRUwEwYDVQQKDAxF
eGFtcGxlIEluYy4xIDAeBgkqhkiG9w0BCQEWEWFkbWluQGV4YW1wbGUub3JnMSYw
JAYDVQQDDB1FeGFtcGxlIENlcnRpZmljYXRlIEF1dGhvcml0eTAeFw0yMzEyMjMx
NjU1NTBaFw0yNDAyMjExNjU1NTBaMG8xCzAJBgNVBAYTAkZSMQ8wDQYDVQQIDAZS
YWRpdXMxFTATBgNVBAoMDEV4YW1wbGUgSW5jLjEYMBYGA1UEAwwPYm9iQGV4YW1w
bGUub3JnMR4wHAYJKoZIhvcNAQkBFg9ib2JAZXhhbXBsZS5vcmcwggEiMA0GCSqG
SIb3DQEBAQUAA4IBDwAwggEKAoIBAQCvUQVD2Pj0iOvT6jbXKRreX+VXDLhbpGYG
5zDEdOXP9odPDXkp612RB1J8Bi96GF7wgWiNtt3Zv5I4dsLRZI12WEK5qQ9v/xhA
a4x28C8HC3FGJRSttwTM3MOS4h9EoivUbvXm6WTBV0zZCXcktBzRGHFN2Nj0pM0f
IXYxalLLGmTO8B1n8tX1NCL750n94+OXBw0yS3BLI0QykBuVceyNcPSsfpZqyn36
goXHto8sttOLH7+BOV9sFFf6THn1m+Rd72+jZzw9BTSQS20FxbGNu6uxvMYxlMnS
uQTK6ezoSyiU4t/HNBLP/dXRAFrmiq+UvmdQSgg4Q8S7jMJBem+PAgMBAAGjgZAw
gY0wEwYDVR0lBAwwCgYIKwYBBQUHAwIwNgYDVR0fBC8wLTAroCmgJ4YlaHR0cDov
L3d3dy5leGFtcGxlLmNvbS9leGFtcGxlX2NhLmNybDAdBgNVHQ4EFgQUGX1PwlAA
4+zS5aWgiVsOd78sM7EwHwYDVR0jBBgwFoAUoss6OM+80S/zytyHxW/LW76/qc8w
DQYJKoZIhvcNAQELBQADggEBAGqHo0Heyr3B4ojdydmhk6CgjLa5rIyguYqEcUjw
6eC9uy2OFkN+7e0N25XavNkBJ00WeKaDar786pYaNbRxSbnaLVOHCx/Icf16flFB
GQxBq6vDHnly5QkPwgqFIXT7ROzGdYofGDunSyWgJhLa/ObIzU9Va/F/2RnWAuqn
UPaRxaamtrUXKzaTT6R51Y05arqkmaOegdpiowRW1axGUJ6s8qN+XX7EQRG1qgA2
6cuslQgmnkoRKlB92mPWNv5tUm/zElZdx8ZiW87tiCBq1Xmn1VTNokRGXjH6MLf9
QMLH82q5TZiVujGKbndI6vP9uLRHeDfFp4NbbsYlQ1XFV3M=
-----END CERTIFICATE-----
