Certificate:
    Data:
        Version: 3 (0x2)
        Serial Number: 2 (0x2)
        Signature Algorithm: sha256WithRSAEncryption
        Issuer: C=FR, ST=Radius, L=Somewhere, O=Example Inc./emailAddress=admin@example.org, CN=Example Certificate Authority
        Validity
            Not Before: Feb 22 15:36:39 2024 GMT
            Not After : Apr 22 15:36:39 2024 GMT
        Subject: C=FR, ST=Radius, O=Example Inc., CN=bob@example.org/emailAddress=bob@example.org
        Subject Public Key Info:
            Public Key Algorithm: rsaEncryption
                Public-Key: (2048 bit)
                Modulus:
                    00:cd:af:9a:fd:64:b1:e7:16:59:f4:31:c9:0e:60:
                    92:59:52:90:af:86:ad:2e:12:e6:bb:cf:5a:a6:16:
                    30:c4:50:d7:5c:93:44:5b:0c:dd:b0:03:9f:4f:48:
                    e3:7b:4b:1d:3d:52:92:a7:15:8a:74:33:3b:e6:f0:
                    4e:a9:27:b7:6b:13:b0:51:31:62:64:2d:19:7a:79:
                    34:ec:ec:26:3b:2c:68:6b:24:e1:03:95:57:e1:43:
                    ca:73:31:7d:c1:06:d8:69:66:75:e4:ae:3f:b3:61:
                    64:46:0b:6f:60:77:28:1f:73:34:f2:aa:48:93:88:
                    b9:4d:46:a5:24:5b:b9:04:81:3d:43:48:19:4f:00:
                    11:2c:4e:94:f6:df:fb:1e:54:f3:ea:8b:d9:fe:04:
                    78:11:51:ba:29:ca:3a:8d:1e:1b:5b:3e:e0:53:ec:
                    57:47:8e:c8:89:5d:30:9d:fe:85:a9:63:f0:90:7a:
                    4a:36:de:74:12:f8:d5:49:01:40:e6:25:6e:b1:73:
                    59:27:1b:27:e8:7e:01:e1:50:96:3e:5e:32:2f:30:
                    c9:4b:8f:67:d2:50:96:b0:d6:b8:4b:a9:70:b1:33:
                    e3:f2:5e:9d:90:de:95:9a:13:b7:30:7a:e2:7d:74:
                    22:5e:12:32:13:99:21:36:60:3b:52:55:72:11:d5:
                    cf:01
                Exponent: 65537 (0x10001)
        X509v3 extensions:
            X509v3 Extended Key Usage: 
                TLS Web Client Authentication
            X509v3 CRL Distribution Points: 
                Full Name:
                  URI:http://www.example.com/example_ca.crl
            X509v3 Subject Key Identifier: 
                DB:91:62:55:7D:00:98:EB:02:81:A3:0F:16:8B:40:AB:36:B1:52:A4
            X509v3 Authority Key Identifier: 
                B1:37:EB:EF:BB:DB:85:13:3B:14:A8:7E:8B:9B:21:F3:BA:00:8A:68
    Signature Algorithm: sha256WithRSAEncryption
    Signature Value:
        24:a3:6f:bb:3f:0e:c6:e6:12:3f:a2:6e:6b:22:2f:9e:e5:da:
        bc:13:b1:78:c1:70:f8:24:ff:6e:0b:df:f5:9a:95:37:6b:df:
        db:1c:48:74:f3:b2:6a:23:ae:08:f4:70:9a:32:12:98:12:34:
        e3:b9:1d:3c:35:74:b2:b9:8f:6e:fe:5f:7f:59:8e:26:4c:1a:
        4f:67:f9:90:cd:42:f0:65:cb:e7:80:ed:9f:13:11:2b:e1:f7:
        9c:38:ec:b2:23:d0:81:36:cf:2d:73:35:63:76:8e:50:7d:f4:
        e1:a2:86:05:d5:6a:f6:38:14:e3:6e:0f:1d:dd:28:69:c0:30:
        de:f9:87:8c:ca:93:d3:b9:04:5f:df:d3:c0:ff:b8:ab:d1:37:
        34:d0:91:9f:05:db:60:9b:61:f6:a8:b0:68:d9:a8:4a:58:ff:
        2d:8f:f2:9b:85:4d:af:f5:92:eb:60:ac:f2:60:a4:95:65:e8:
        be:de:33:94:cb:cc:c0:c2:97:b1:18:f5:b5:38:be:cd:a5:4f:
        d0:15:f1:93:8b:cf:d0:81:6e:84:10:93:24:38:5d:51:4d:cd:
        5c:ad:61:7b:25:53:38:1b:22:2a:55:ed:26:fd:25:4e:8b:1d:
        c7:1b:c6:d4:4d:f4:c7:f2:6f:1a:b5:ca:d7:10:d9:d0:ba:88:
        92:37:03:8e
-----BEGIN CERTIFICATE-----
MIIEDzCCAvegAwIBAgIBAjANBgkqhkiG9w0BAQsFADCBkzELMAkGA1UEBhMCRlIx
DzANBgNVBAgMBlJhZGl1czESMBAGA1UEBwwJU29tZXdoZXJlMRUwEwYDVQQKDAxF
eGFtcGxlIEluYy4xIDAeBgkqhkiG9w0BCQEWEWFkbWluQGV4YW1wbGUub3JnMSYw
JAYDVQQDDB1FeGFtcGxlIENlcnRpZmljYXRlIEF1dGhvcml0eTAeFw0yNDAyMjIx
NTM2MzlaFw0yNDA0MjIxNTM2MzlaMG8xCzAJBgNVBAYTAkZSMQ8wDQYDVQQIDAZS
YWRpdXMxFTATBgNVBAoMDEV4YW1wbGUgSW5jLjEYMBYGA1UEAwwPYm9iQGV4YW1w
bGUub3JnMR4wHAYJKoZIhvcNAQkBFg9ib2JAZXhhbXBsZS5vcmcwggEiMA0GCSqG
SIb3DQEBAQUAA4IBDwAwggEKAoIBAQDNr5r9ZLHnFln0MckOYJJZUpCvhq0uEua7
z1qmFjDEUNdck0RbDN2wA59PSON7Sx09UpKnFYp0Mzvm8E6pJ7drE7BRMWJkLRl6
eTTs7CY7LGhrJOEDlVfhQ8pzMX3BBthpZnXkrj+zYWRGC29gdygfczTyqkiTiLlN
RqUkW7kEgT1DSBlPABEsTpT23/seVPPqi9n+BHgRUbopyjqNHhtbPuBT7FdHjsiJ
XTCd/oWpY/CQeko23nQS+NVJAUDmJW6xc1knGyfofgHhUJY+XjIvMMlLj2fSUJaw
1rhLqXCxM+PyXp2Q3pWaE7cweuJ9dCJeEjITmSE2YDtSVXIR1c8BAgMBAAGjgZAw
gY0wEwYDVR0lBAwwCgYIKwYBBQUHAwIwNgYDVR0fBC8wLTAroCmgJ4YlaHR0cDov
L3d3dy5leGFtcGxlLmNvbS9leGFtcGxlX2NhLmNybDAdBgNVHQ4EFgQU25FiVX0A
mOsCgaMPFotAqzaxUqQwHwYDVR0jBBgwFoAUsTfr77vbhRM7FKh+i5sh87oAimgw
DQYJKoZIhvcNAQELBQADggEBACSjb7s/DsbmEj+ibmsiL57l2rwTsXjBcPgk/24L
3/WalTdr39scSHTzsmojrgj0cJoyEpgSNOO5HTw1dLK5j27+X39ZjiZMGk9n+ZDN
QvBly+eA7Z8TESvh95w47LIj0IE2zy1zNWN2jlB99OGihgXVavY4FONuDx3dKGnA
MN75h4zKk9O5BF/f08D/uKvRNzTQkZ8F22CbYfaosGjZqEpY/y2P8puFTa/1kutg
rPJgpJVl6L7eM5TLzMDCl7EY9bU4vs2lT9AV8ZOLz9CBboQQkyQ4XVFNzVytYXsl
UzgbIipV7Sb9JU6LHccbxtRN9Mfybxq1ytcQ2dC6iJI3A44=
-----END CERTIFICATE-----
