Certificate:
    Data:
        Version: 3 (0x2)
        Serial Number: 1 (0x1)
        Signature Algorithm: sha256WithRSAEncryption
        Issuer: C=FR, ST=Radius, L=Somewhere, O=Example Inc./emailAddress=admin@example.org, CN=Example Certificate Authority
        Validity
            Not Before: Feb 22 15:36:37 2024 GMT
            Not After : Apr 22 15:36:37 2024 GMT
        Subject: C=FR, ST=Radius, O=Example Inc., CN=Example Server Certificate/emailAddress=admin@example.org
        Subject Public Key Info:
            Public Key Algorithm: rsaEncryption
                Public-Key: (2048 bit)
                Modulus:
                    00:a7:69:dc:1b:d9:cc:ee:b4:bb:58:df:d9:68:a7:
                    a5:aa:cf:ed:a1:2d:85:b9:ec:3a:0c:93:08:83:12:
                    55:9b:56:ab:70:22:4d:30:af:bf:d0:32:aa:a1:f7:
                    30:e0:97:bc:1e:52:25:f0:ed:20:e2:90:a1:30:bb:
                    b2:04:92:40:3d:2c:92:6a:33:c5:0e:c0:39:67:ab:
                    78:a3:83:a7:dd:81:ca:cb:cb:b3:d9:09:e9:1f:a8:
                    4a:52:31:76:f2:62:a2:83:95:82:3d:71:bc:89:59:
                    06:34:11:30:73:df:29:c2:d0:10:ab:d1:2d:97:1f:
                    c7:df:ef:6c:9e:34:b7:c2:86:a4:a6:fe:5d:b0:c1:
                    b0:49:b0:65:2b:ed:43:5d:24:f0:75:56:af:77:46:
                    ed:6b:7d:db:aa:d7:8c:97:1b:7c:4f:51:b2:ec:55:
                    c2:73:12:b6:78:1b:38:07:02:4e:94:72:2c:14:fe:
                    93:b2:75:5a:34:15:ad:07:03:0e:fc:04:09:3d:40:
                    32:00:a8:e9:5a:c2:cd:2b:e6:42:44:c4:3a:62:59:
                    9a:bd:59:d1:a3:af:39:5f:82:97:bd:68:74:74:a1:
                    85:64:27:6a:53:cf:ae:79:4c:81:ef:7b:7c:77:0f:
                    63:06:dd:e6:34:df:16:86:fe:46:2d:ee:4a:c9:8a:
                    5c:6b
                Exponent: 65537 (0x10001)
        X509v3 extensions:
            X509v3 Extended Key Usage: 
                TLS Web Server Authentication
            X509v3 CRL Distribution Points: 
                Full Name:
                  URI:http://www.example.com/example_ca.crl
            X509v3 Subject Key Identifier: 
                33:15:F3:6B:39:A1:AC:93:5C:09:91:5A:A3:C9:94:89:DC:A5:4B:F6
            X509v3 Authority Key Identifier: 
                B1:37:EB:EF:BB:DB:85:13:3B:14:A8:7E:8B:9B:21:F3:BA:00:8A:68
    Signature Algorithm: sha256WithRSAEncryption
    Signature Value:
        3e:9c:87:85:cb:27:6a:ab:2c:c2:2c:e7:e7:92:d1:e6:ec:b0:
        47:2c:c7:92:f9:e6:a3:42:f1:5e:8a:ed:56:68:2d:f5:a1:ab:
        b8:9a:16:78:03:2e:d8:13:97:65:5c:86:9a:19:a6:1f:51:60:
        49:b8:2e:0f:47:dd:83:85:63:0c:2a:74:ec:3d:2c:e1:8d:c4:
        25:88:c0:d5:9e:c7:a0:5e:81:04:1b:89:5b:8b:39:80:ee:0f:
        64:a6:98:aa:d7:95:68:eb:b0:66:33:9d:c3:5e:16:6c:bf:9f:
        ec:97:5f:95:ec:b6:ce:c5:12:7d:6d:fe:fb:4f:2f:ed:15:03:
        8f:a8:fd:a2:44:3f:7c:e1:f1:51:cf:04:f2:e2:ca:fe:46:0a:
        4c:55:c5:fb:fb:4a:30:b7:cd:04:cf:4a:a6:17:1a:da:d9:f4:
        19:75:6a:9a:77:79:53:9c:15:7a:bb:7b:6a:4a:63:04:56:ad:
        0f:fb:ef:a2:a1:b0:48:94:9d:06:19:81:aa:b2:06:2b:43:d3:
        a7:30:7d:58:23:9c:93:07:f5:5d:9d:dc:f9:69:93:27:d8:e2:
        d8:65:29:fe:96:23:48:1a:b7:ef:7c:9e:55:1a:ad:11:c9:ed:
        36:18:cc:16:b1:bd:2e:ba:48:67:4b:00:65:09:62:8a:3a:ce:
        42:a6:50:5e
-----BEGIN CERTIFICATE-----
MIIEHDCCAwSgAwIBAgIBATANBgkqhkiG9w0BAQsFADCBkzELMAkGA1UEBhMCRlIx
DzANBgNVBAgMBlJhZGl1czESMBAGA1UEBwwJU29tZXdoZXJlMRUwEwYDVQQKDAxF
eGFtcGxlIEluYy4xIDAeBgkqhkiG9w0BCQEWEWFkbWluQGV4YW1wbGUub3JnMSYw
JAYDVQQDDB1FeGFtcGxlIENlcnRpZmljYXRlIEF1dGhvcml0eTAeFw0yNDAyMjIx
NTM2MzdaFw0yNDA0MjIxNTM2MzdaMHwxCzAJBgNVBAYTAkZSMQ8wDQYDVQQIDAZS
YWRpdXMxFTATBgNVBAoMDEV4YW1wbGUgSW5jLjEjMCEGA1UEAwwaRXhhbXBsZSBT
ZXJ2ZXIgQ2VydGlmaWNhdGUxIDAeBgkqhkiG9w0BCQEWEWFkbWluQGV4YW1wbGUu
b3JnMIIBIjANBgkqhkiG9w0BAQEFAAOCAQ8AMIIBCgKCAQEAp2ncG9nM7rS7WN/Z
aKelqs/toS2Fuew6DJMIgxJVm1arcCJNMK+/0DKqofcw4Je8HlIl8O0g4pChMLuy
BJJAPSySajPFDsA5Z6t4o4On3YHKy8uz2QnpH6hKUjF28mKig5WCPXG8iVkGNBEw
c98pwtAQq9Etlx/H3+9snjS3woakpv5dsMGwSbBlK+1DXSTwdVavd0bta33bqteM
lxt8T1Gy7FXCcxK2eBs4BwJOlHIsFP6TsnVaNBWtBwMO/AQJPUAyAKjpWsLNK+ZC
RMQ6YlmavVnRo685X4KXvWh0dKGFZCdqU8+ueUyB73t8dw9jBt3mNN8Whv5GLe5K
yYpcawIDAQABo4GQMIGNMBMGA1UdJQQMMAoGCCsGAQUFBwMBMDYGA1UdHwQvMC0w
K6ApoCeGJWh0dHA6Ly93d3cuZXhhbXBsZS5jb20vZXhhbXBsZV9jYS5jcmwwHQYD
VR0OBBYEFDMV82s5oayTXAmRWqPJlIncpUv2MB8GA1UdIwQYMBaAFLE36++724UT
OxSofoubIfO6AIpoMA0GCSqGSIb3DQEBCwUAA4IBAQA+nIeFyydqqyzCLOfnktHm
7LBHLMeS+eajQvFeiu1WaC31oau4mhZ4Ay7YE5dlXIaaGaYfUWBJuC4PR92DhWMM
KnTsPSzhjcQliMDVnsegXoEEG4lbizmA7g9kppiq15Vo67BmM53DXhZsv5/sl1+V
7LbOxRJ9bf77Ty/tFQOPqP2iRD984fFRzwTy4sr+RgpMVcX7+0owt80Ez0qmFxra
2fQZdWqad3lTnBV6u3tqSmMEVq0P+++iobBIlJ0GGYGqsgYrQ9OnMH1YI5yTB/Vd
ndz5aZMn2OLYZSn+liNIGrfvfJ5VGq0Rye02GMwWsb0uukhnSwBlCWKKOs5CplBe
-----END CERTIFICATE-----
