Certificate:
    Data:
        Version: 3 (0x2)
        Serial Number: 1 (0x1)
        Signature Algorithm: sha256WithRSAEncryption
        Issuer: C=FR, ST=Radius, L=Somewhere, O=Example Inc./emailAddress=admin@example.org, CN=Example Certificate Authority
        Validity
            Not Before: Dec 20 14:40:58 2023 GMT
            Not After : Feb 18 14:40:58 2024 GMT
        Subject: C=FR, ST=Radius, O=Example Inc., CN=Example Server Certificate/emailAddress=admin@example.org
        Subject Public Key Info:
            Public Key Algorithm: rsaEncryption
                Public-Key: (2048 bit)
                Modulus:
                    00:9a:62:50:3d:59:46:91:60:8b:e5:3f:ae:fd:01:
                    24:0b:ae:75:61:15:46:3e:bf:71:79:8a:86:52:16:
                    c2:a9:ac:c6:ed:11:b6:bb:3b:50:81:94:9b:81:75:
                    72:18:51:28:e3:98:4e:fe:7b:7b:ba:26:a7:b4:79:
                    8b:4c:4b:df:a9:88:f3:75:1a:62:56:89:6c:00:a2:
                    f7:de:af:39:e8:72:3f:2c:72:e8:bd:86:12:67:c1:
                    04:b0:8b:c6:43:a0:48:b4:f1:ba:5f:b3:74:d2:71:
                    57:4e:20:3b:38:90:ba:5b:ca:30:bc:d2:cf:28:1a:
                    89:6f:32:e3:8d:c7:86:2e:f3:ee:0b:b5:15:32:3f:
                    95:e1:f3:fd:9d:ae:eb:99:68:33:b6:24:5b:c4:fb:
                    52:4d:44:d7:6b:f5:e3:8e:36:c7:1e:e3:f8:18:4c:
                    cb:9e:34:bd:c3:89:1a:90:f6:5f:9a:ff:4f:20:63:
                    61:16:c9:65:c8:11:a6:39:7d:98:be:f8:41:41:48:
                    3c:e3:8f:a4:82:e2:d8:cf:1d:86:42:98:6e:a0:71:
                    50:bb:8b:b7:2a:2d:e0:33:24:42:a5:01:ee:03:51:
                    e9:71:b4:79:d7:42:ad:96:b0:e1:30:e4:5e:1e:75:
                    7b:ee:6f:a4:15:15:30:07:99:c0:d4:98:19:ba:d9:
                    26:cb
                Exponent: 65537 (0x10001)
        X509v3 extensions:
            X509v3 Extended Key Usage: 
                TLS Web Server Authentication
            X509v3 CRL Distribution Points: 
                Full Name:
                  URI:http://www.example.com/example_ca.crl
            X509v3 Certificate Policies: 
                Policy: 1.3.6.1.4.1.40808.1.3.2
            X509v3 Subject Key Identifier: 
                43:5E:7E:B4:A9:7F:AC:27:ED:F4:12:56:C9:A6:38:DA:5F:8C:A5:CD
            X509v3 Authority Key Identifier: 
                54:7E:9E:86:EA:DB:16:E9:5A:57:69:B5:60:48:BB:F6:39:8F:33:04
    Signature Algorithm: sha256WithRSAEncryption
    Signature Value:
        15:fa:e3:5d:ff:e2:3f:0e:4f:5b:49:f2:c8:58:c0:e6:f1:fe:
        72:f5:54:e2:3c:d4:55:86:38:ee:2f:55:17:1d:6a:67:a5:d3:
        53:38:91:a4:94:b6:bf:aa:b4:28:c0:d1:fb:6b:69:88:e8:ac:
        79:00:c5:59:06:5f:09:1f:1d:8e:59:b7:a3:07:48:52:7b:79:
        6c:90:ea:34:1b:c4:79:d0:59:9c:44:18:28:22:8a:87:be:fe:
        9b:36:c4:ee:e5:51:4a:6c:e0:d6:92:16:0e:a6:d9:e1:fc:0d:
        3d:37:70:b7:7f:8b:07:9a:01:32:46:fa:dc:f5:28:c6:34:64:
        c5:e9:d2:30:05:63:aa:a1:2b:1c:a1:47:1e:09:da:68:79:7a:
        b5:c4:05:54:ae:52:c2:12:89:c4:17:60:9a:02:a0:88:9e:76:
        1f:6c:3d:24:4c:67:66:a6:a7:66:b1:f1:29:21:34:39:8a:9d:
        c0:17:9f:f6:01:e9:f1:7a:91:0a:85:91:f2:0a:d0:73:88:df:
        17:a4:a5:9b:73:16:e6:88:80:f3:60:90:74:1d:34:9c:c4:b4:
        e0:d7:42:cb:fb:89:47:ba:b0:78:00:86:61:a8:16:3a:72:17:
        08:09:66:9f:bd:0f:c8:ae:b1:a8:4c:58:13:bb:00:03:6c:db:
        86:2c:8a:40
-----BEGIN CERTIFICATE-----
MIIENjCCAx6gAwIBAgIBATANBgkqhkiG9w0BAQsFADCBkzELMAkGA1UEBhMCRlIx
DzANBgNVBAgMBlJhZGl1czESMBAGA1UEBwwJU29tZXdoZXJlMRUwEwYDVQQKDAxF
eGFtcGxlIEluYy4xIDAeBgkqhkiG9w0BCQEWEWFkbWluQGV4YW1wbGUub3JnMSYw
JAYDVQQDDB1FeGFtcGxlIENlcnRpZmljYXRlIEF1dGhvcml0eTAeFw0yMzEyMjAx
NDQwNThaFw0yNDAyMTgxNDQwNThaMHwxCzAJBgNVBAYTAkZSMQ8wDQYDVQQIDAZS
YWRpdXMxFTATBgNVBAoMDEV4YW1wbGUgSW5jLjEjMCEGA1UEAwwaRXhhbXBsZSBT
ZXJ2ZXIgQ2VydGlmaWNhdGUxIDAeBgkqhkiG9w0BCQEWEWFkbWluQGV4YW1wbGUu
b3JnMIIBIjANBgkqhkiG9w0BAQEFAAOCAQ8AMIIBCgKCAQEAmmJQPVlGkWCL5T+u
/QEkC651YRVGPr9xeYqGUhbCqazG7RG2uztQgZSbgXVyGFEo45hO/nt7uiantHmL
TEvfqYjzdRpiVolsAKL33q856HI/LHLovYYSZ8EEsIvGQ6BItPG6X7N00nFXTiA7
OJC6W8owvNLPKBqJbzLjjceGLvPuC7UVMj+V4fP9na7rmWgztiRbxPtSTUTXa/Xj
jjbHHuP4GEzLnjS9w4kakPZfmv9PIGNhFsllyBGmOX2YvvhBQUg844+kguLYzx2G
QphuoHFQu4u3Ki3gMyRCpQHuA1HpcbR510KtlrDhMOReHnV77m+kFRUwB5nA1JgZ
utkmywIDAQABo4GqMIGnMBMGA1UdJQQMMAoGCCsGAQUFBwMBMDYGA1UdHwQvMC0w
K6ApoCeGJWh0dHA6Ly93d3cuZXhhbXBsZS5jb20vZXhhbXBsZV9jYS5jcmwwGAYD
VR0gBBEwDzANBgsrBgEEAYK+aAEDAjAdBgNVHQ4EFgQUQ15+tKl/rCft9BJWyaY4
2l+Mpc0wHwYDVR0jBBgwFoAUVH6ehurbFulaV2m1YEi79jmPMwQwDQYJKoZIhvcN
AQELBQADggEBABX6413/4j8OT1tJ8shYwObx/nL1VOI81FWGOO4vVRcdamel01M4
kaSUtr+qtCjA0ftraYjorHkAxVkGXwkfHY5Zt6MHSFJ7eWyQ6jQbxHnQWZxEGCgi
ioe+/ps2xO7lUUps4NaSFg6m2eH8DT03cLd/iweaATJG+tz1KMY0ZMXp0jAFY6qh
KxyhRx4J2mh5erXEBVSuUsISicQXYJoCoIiedh9sPSRMZ2amp2ax8SkhNDmKncAX
n/YB6fF6kQqFkfIK0HOI3xekpZtzFuaIgPNgkHQdNJzEtODXQsv7iUe6sHgAhmGo
FjpyFwgJZp+9D8iusahMWBO7AANs24YsikA=
-----END CERTIFICATE-----
