Certificate:
    Data:
        Version: 3 (0x2)
        Serial Number: 2 (0x2)
        Signature Algorithm: sha256WithRSAEncryption
        Issuer: C=GL, ST=New World, L=Raftel, O=Straw Hat Networking/emailAddress=ca@strawhat.com, CN=ca.strawhat.com
        Validity
            Not Before: Dec 16 09:10:20 2023 GMT
            Not After : Feb 14 09:10:20 2024 GMT
        Subject: C=GL, ST=New World, O=Straw Hat Networking, CN=luffy@strawhat.com/emailAddress=luffy@strawhat.com
        Subject Public Key Info:
            Public Key Algorithm: rsaEncryption
                Public-Key: (2048 bit)
                Modulus:
                    00:cc:d4:45:b6:a6:9a:92:21:34:61:2f:44:97:7f:
                    85:63:89:1b:8d:ba:c5:50:e0:3f:b8:6e:04:ef:12:
                    d4:3a:3e:fc:bf:9b:ad:3a:88:79:95:37:93:34:a6:
                    9f:20:c8:bf:65:8e:6e:c3:bc:2c:4e:8f:21:1b:48:
                    29:f9:3d:94:2f:17:15:0b:27:f6:4f:c0:f2:52:76:
                    d5:4b:88:a9:8e:14:20:6d:4b:ea:3e:3d:71:dd:21:
                    b4:fb:25:dd:34:31:67:22:cd:9f:f6:17:cb:70:92:
                    12:cb:1a:ab:2c:27:c4:b5:01:8c:78:b6:03:8e:02:
                    e6:c9:cc:3a:92:f1:76:51:48:05:d6:8e:78:41:d5:
                    2f:54:0b:63:f7:f7:a0:7b:08:2a:0a:bc:84:8e:cb:
                    1a:df:e6:02:cc:69:73:1a:3c:43:20:6a:60:46:99:
                    92:30:51:da:6d:6c:df:7a:b9:17:a9:9b:02:5f:93:
                    71:18:a3:1c:20:89:03:0f:23:64:b9:43:32:74:2f:
                    f4:b8:79:9a:65:87:e9:df:5c:9f:2d:2f:cc:75:80:
                    8d:d4:06:f2:09:0d:e3:4d:45:2c:c6:cc:49:1f:c4:
                    2d:cd:29:5a:7d:40:02:92:24:5a:71:c6:2b:90:13:
                    d7:15:8f:5c:e4:2a:41:93:fe:3f:35:25:f7:bd:46:
                    31:03
                Exponent: 65537 (0x10001)
        X509v3 extensions:
            X509v3 Extended Key Usage: 
                TLS Web Client Authentication
            X509v3 CRL Distribution Points: 
                Full Name:
                  URI:http://www.strawhat.com/ca.crl
            X509v3 Subject Key Identifier: 
                26:D8:F8:08:9C:22:CC:3F:C7:A6:E1:73:55:A8:41:E0:3C:1A:97:9E
            X509v3 Authority Key Identifier: 
                80:0C:42:7E:C0:19:53:1A:BC:B7:D6:00:04:04:C6:4B:D7:B0:7F:ED
    Signature Algorithm: sha256WithRSAEncryption
    Signature Value:
        80:1d:a8:27:a6:64:af:b0:71:29:6e:ef:b3:0c:6d:db:f0:48:
        1d:37:69:7c:2c:4f:12:3f:25:53:6d:47:9e:df:e3:10:bf:9e:
        e9:a6:fc:3e:96:fb:06:e2:f3:e1:d4:62:7f:82:54:ae:18:27:
        69:f4:63:e2:75:0a:70:64:6a:5f:3d:a4:a7:16:98:c1:0a:71:
        be:fe:3c:97:e0:86:b4:77:58:e6:43:dd:1f:85:be:19:0e:74:
        06:c2:76:8c:6c:9d:19:0e:0e:3b:3f:16:00:a9:49:03:6c:43:
        09:a9:e7:33:8a:2b:e7:cf:6d:a6:21:6d:bf:3b:64:12:f3:de:
        b5:6b:e3:b2:5d:00:cf:df:b9:94:ad:46:20:b6:09:6e:d4:44:
        3d:0f:c1:ad:4e:fe:c0:19:21:45:89:96:9b:67:cb:d7:93:4b:
        91:23:76:5a:50:9b:25:61:55:a3:e1:2f:37:b8:76:2d:44:33:
        9d:03:5b:e9:79:41:d0:37:c5:3d:be:24:d2:a0:a5:0b:b5:3f:
        b2:0e:2f:ee:5b:d7:de:70:c8:78:96:47:b1:17:c3:00:d2:c1:
        10:c4:0e:bd:52:6f:c9:0d:a3:e4:13:4d:b9:38:6d:9c:5f:61:
        3a:5e:62:2b:7f:e1:18:2b:a4:25:c0:f2:57:77:71:d9:69:b7:
        ae:b3:be:f4
-----BEGIN CERTIFICATE-----
MIIEEjCCAvqgAwIBAgIBAjANBgkqhkiG9w0BAQsFADCBizELMAkGA1UEBhMCR0wx
EjAQBgNVBAgMCU5ldyBXb3JsZDEPMA0GA1UEBwwGUmFmdGVsMR0wGwYDVQQKDBRT
dHJhdyBIYXQgTmV0d29ya2luZzEeMBwGCSqGSIb3DQEJARYPY2FAc3RyYXdoYXQu
Y29tMRgwFgYDVQQDDA9jYS5zdHJhd2hhdC5jb20wHhcNMjMxMjE2MDkxMDIwWhcN
MjQwMjE0MDkxMDIwWjCBgDELMAkGA1UEBhMCR0wxEjAQBgNVBAgMCU5ldyBXb3Js
ZDEdMBsGA1UECgwUU3RyYXcgSGF0IE5ldHdvcmtpbmcxGzAZBgNVBAMMEmx1ZmZ5
QHN0cmF3aGF0LmNvbTEhMB8GCSqGSIb3DQEJARYSbHVmZnlAc3RyYXdoYXQuY29t
MIIBIjANBgkqhkiG9w0BAQEFAAOCAQ8AMIIBCgKCAQEAzNRFtqaakiE0YS9El3+F
Y4kbjbrFUOA/uG4E7xLUOj78v5utOoh5lTeTNKafIMi/ZY5uw7wsTo8hG0gp+T2U
LxcVCyf2T8DyUnbVS4ipjhQgbUvqPj1x3SG0+yXdNDFnIs2f9hfLcJISyxqrLCfE
tQGMeLYDjgLmycw6kvF2UUgF1o54QdUvVAtj9/egewgqCryEjssa3+YCzGlzGjxD
IGpgRpmSMFHabWzferkXqZsCX5NxGKMcIIkDDyNkuUMydC/0uHmaZYfp31yfLS/M
dYCN1AbyCQ3jTUUsxsxJH8QtzSlafUACkiRaccYrkBPXFY9c5CpBk/4/NSX3vUYx
AwIDAQABo4GJMIGGMBMGA1UdJQQMMAoGCCsGAQUFBwMCMC8GA1UdHwQoMCYwJKAi
oCCGHmh0dHA6Ly93d3cuc3RyYXdoYXQuY29tL2NhLmNybDAdBgNVHQ4EFgQUJtj4
CJwizD/HpuFzVahB4Dwal54wHwYDVR0jBBgwFoAUgAxCfsAZUxq8t9YABATGS9ew
f+0wDQYJKoZIhvcNAQELBQADggEBAIAdqCemZK+wcSlu77MMbdvwSB03aXwsTxI/
JVNtR57f4xC/numm/D6W+wbi8+HUYn+CVK4YJ2n0Y+J1CnBkal89pKcWmMEKcb7+
PJfghrR3WOZD3R+FvhkOdAbCdoxsnRkODjs/FgCpSQNsQwmp5zOKK+fPbaYhbb87
ZBLz3rVr47JdAM/fuZStRiC2CW7URD0Pwa1O/sAZIUWJlptny9eTS5EjdlpQmyVh
VaPhLze4di1EM50DW+l5QdA3xT2+JNKgpQu1P7IOL+5b195wyHiWR7EXwwDSwRDE
Dr1Sb8kNo+QTTbk4bZxfYTpeYit/4RgrpCXA8ld3cdlpt66zvvQ=
-----END CERTIFICATE-----
