Certificate:
    Data:
        Version: 3 (0x2)
        Serial Number: 2 (0x2)
        Signature Algorithm: sha256WithRSAEncryption
        Issuer: C=FR, ST=Radius, L=Somewhere, O=Example Inc./emailAddress=admin@example.org, CN=Example Certificate Authority
        Validity
            Not Before: Nov 25 16:11:30 2023 GMT
            Not After : Jan 24 16:11:30 2024 GMT
        Subject: C=FR, ST=Radius, O=Example Inc., CN=user@example.org/emailAddress=user@example.org
        Subject Public Key Info:
            Public Key Algorithm: rsaEncryption
                Public-Key: (2048 bit)
                Modulus:
                    00:ca:e6:74:a4:7b:44:60:61:88:d8:0c:e5:f7:b3:
                    46:84:b3:6c:73:7a:83:d8:34:d1:48:fe:e1:4e:00:
                    c3:a3:0d:7d:ab:81:09:22:26:48:4a:f7:95:d4:97:
                    0b:5a:31:ef:33:e4:7d:ac:16:98:d0:6d:cc:9e:56:
                    bf:8c:96:fe:ca:a2:7b:ca:fb:62:8a:0b:80:73:a8:
                    99:7c:19:a6:af:d3:76:61:82:0b:d9:00:16:16:27:
                    9a:54:d8:58:70:b4:b1:2d:65:26:2b:c5:ac:8d:9e:
                    37:29:ee:bb:0d:4a:55:82:c5:3b:4c:3c:c2:1c:9e:
                    2a:ac:b7:65:dc:ce:e1:04:b7:e6:b6:a8:d9:cd:92:
                    ad:a5:91:4a:77:24:69:8e:ba:01:5f:49:47:eb:ac:
                    5d:f9:19:dc:54:e2:a4:53:58:f8:48:e9:46:0e:d5:
                    87:26:fc:b1:b1:4a:5b:a7:6d:ca:1e:7a:20:8d:46:
                    15:11:2b:81:33:43:3d:58:98:1c:0c:c6:87:76:42:
                    66:89:5e:dd:56:25:6a:96:83:a0:e6:6d:ba:06:46:
                    c7:37:ba:99:a7:74:19:7f:83:86:10:f5:04:c5:68:
                    4e:26:88:8e:e0:13:0b:db:38:8a:8e:e7:51:9b:ff:
                    69:56:2c:26:fc:d5:3f:07:f0:26:32:8c:a9:84:f7:
                    fa:9f
                Exponent: 65537 (0x10001)
        X509v3 extensions:
            X509v3 Extended Key Usage: 
                TLS Web Client Authentication
            X509v3 CRL Distribution Points: 
                Full Name:
                  URI:http://www.example.com/example_ca.crl
            X509v3 Subject Key Identifier: 
                E8:D9:F2:B4:65:53:9E:5B:5D:C2:13:37:EF:DC:7B:34:2D:48:7A:2D
            X509v3 Authority Key Identifier: 
                CC:22:7C:5A:3A:AF:EA:CE:90:DB:DF:9E:0D:AD:90:4B:1B:D7:79:DF
    Signature Algorithm: sha256WithRSAEncryption
    Signature Value:
        23:76:e0:c3:26:7b:ac:0d:19:e5:48:2f:77:28:08:2b:ab:fb:
        5e:21:6e:32:25:fa:4b:f7:b7:9c:db:c8:ea:43:91:79:80:04:
        b6:48:50:ef:8e:83:6d:76:7f:f4:e7:cd:ad:f7:41:e5:90:58:
        9b:0c:7c:cf:d1:47:df:98:94:b0:ab:e8:95:b9:b9:76:6f:70:
        32:64:b0:8b:d8:da:67:22:8e:83:6a:0b:e0:6d:37:1b:c6:62:
        2d:72:1b:53:75:eb:ea:28:29:74:29:44:aa:74:70:5c:fc:56:
        e3:b9:3c:2a:89:bc:6f:3e:2e:87:71:f7:c0:0d:7a:ac:7a:a3:
        e9:42:8f:2c:25:e4:14:41:8b:e5:f8:6e:1a:a3:08:1f:c9:eb:
        b7:48:77:0f:96:d6:95:9b:6c:0b:ff:4e:d6:0f:b3:29:cb:1a:
        08:8d:29:66:41:9f:67:70:7a:bb:39:77:90:3c:38:0e:48:2f:
        27:4f:df:a9:65:ff:f3:84:f9:f7:d1:07:a5:14:f5:c4:17:e1:
        d4:79:de:4b:80:55:01:fd:1b:27:ac:c3:16:57:a5:53:16:c5:
        9a:56:4f:b7:df:5e:5e:71:5c:c3:1d:c7:40:0d:15:43:c6:d4:
        66:c6:60:58:ee:b9:c9:6f:8a:6c:78:bb:f1:45:7d:58:b1:20:
        56:d8:da:83
-----BEGIN CERTIFICATE-----
MIIEETCCAvmgAwIBAgIBAjANBgkqhkiG9w0BAQsFADCBkzELMAkGA1UEBhMCRlIx
DzANBgNVBAgMBlJhZGl1czESMBAGA1UEBwwJU29tZXdoZXJlMRUwEwYDVQQKDAxF
eGFtcGxlIEluYy4xIDAeBgkqhkiG9w0BCQEWEWFkbWluQGV4YW1wbGUub3JnMSYw
JAYDVQQDDB1FeGFtcGxlIENlcnRpZmljYXRlIEF1dGhvcml0eTAeFw0yMzExMjUx
NjExMzBaFw0yNDAxMjQxNjExMzBaMHExCzAJBgNVBAYTAkZSMQ8wDQYDVQQIDAZS
YWRpdXMxFTATBgNVBAoMDEV4YW1wbGUgSW5jLjEZMBcGA1UEAwwQdXNlckBleGFt
cGxlLm9yZzEfMB0GCSqGSIb3DQEJARYQdXNlckBleGFtcGxlLm9yZzCCASIwDQYJ
KoZIhvcNAQEBBQADggEPADCCAQoCggEBAMrmdKR7RGBhiNgM5fezRoSzbHN6g9g0
0Uj+4U4Aw6MNfauBCSImSEr3ldSXC1ox7zPkfawWmNBtzJ5Wv4yW/sqie8r7YooL
gHOomXwZpq/TdmGCC9kAFhYnmlTYWHC0sS1lJivFrI2eNynuuw1KVYLFO0w8whye
Kqy3ZdzO4QS35rao2c2SraWRSnckaY66AV9JR+usXfkZ3FTipFNY+EjpRg7Vhyb8
sbFKW6dtyh56II1GFRErgTNDPViYHAzGh3ZCZole3VYlapaDoOZtugZGxze6mad0
GX+DhhD1BMVoTiaIjuATC9s4io7nUZv/aVYsJvzVPwfwJjKMqYT3+p8CAwEAAaOB
kDCBjTATBgNVHSUEDDAKBggrBgEFBQcDAjA2BgNVHR8ELzAtMCugKaAnhiVodHRw
Oi8vd3d3LmV4YW1wbGUuY29tL2V4YW1wbGVfY2EuY3JsMB0GA1UdDgQWBBTo2fK0
ZVOeW13CEzfv3Hs0LUh6LTAfBgNVHSMEGDAWgBTMInxaOq/qzpDb354NrZBLG9d5
3zANBgkqhkiG9w0BAQsFAAOCAQEAI3bgwyZ7rA0Z5UgvdygIK6v7XiFuMiX6S/e3
nNvI6kOReYAEtkhQ746DbXZ/9OfNrfdB5ZBYmwx8z9FH35iUsKvolbm5dm9wMmSw
i9jaZyKOg2oL4G03G8ZiLXIbU3Xr6igpdClEqnRwXPxW47k8Kom8bz4uh3H3wA16
rHqj6UKPLCXkFEGL5fhuGqMIH8nrt0h3D5bWlZtsC/9O1g+zKcsaCI0pZkGfZ3B6
uzl3kDw4DkgvJ0/fqWX/84T599EHpRT1xBfh1HneS4BVAf0bJ6zDFlelUxbFmlZP
t99eXnFcwx3HQA0VQ8bUZsZgWO65yW+KbHi78UV9WLEgVtjagw==
-----END CERTIFICATE-----
