Certificate:
    Data:
        Version: 3 (0x2)
        Serial Number: 1 (0x1)
        Signature Algorithm: sha256WithRSAEncryption
        Issuer: C=GL, ST=New World, L=Raftel, O=Straw Hat Networking/emailAddress=ca@strawhat.com, CN=ca.strawhat.com
        Validity
            Not Before: Dec  6 14:47:31 2023 GMT
            Not After : Feb  4 14:47:31 2024 GMT
        Subject: C=GL, ST=New World, O=Straw Hat Networking, CN=radius.strawhat.com/emailAddress=radius@strawhat.com
        Subject Public Key Info:
            Public Key Algorithm: rsaEncryption
                Public-Key: (2048 bit)
                Modulus:
                    00:92:67:a2:54:48:d7:a8:2c:79:df:26:b5:84:50:
                    59:ed:bf:38:08:e2:7a:93:52:3e:21:cf:de:bc:51:
                    94:01:a7:f1:10:75:06:6d:0e:bd:31:ac:bf:42:21:
                    0b:7a:9f:08:34:66:6d:22:ec:73:54:eb:c0:51:ff:
                    6f:6d:0a:5b:9b:cf:88:d3:23:fc:b1:ef:d7:64:1b:
                    2a:ee:aa:bd:94:5f:33:78:51:e4:78:de:ad:a5:9b:
                    29:2f:a3:ed:fc:ad:97:18:56:7d:b0:d7:f8:97:a4:
                    bb:0f:33:0a:d5:60:69:6a:13:3f:c3:2e:45:17:ea:
                    93:7a:48:d2:a7:b5:71:9f:7d:f1:13:65:2c:ce:43:
                    1d:b7:6f:35:bc:f9:ed:a0:7d:6f:e9:11:88:a6:6b:
                    d7:21:5a:11:12:35:29:18:d3:b9:c3:6c:54:33:02:
                    7c:a8:b6:d0:88:cd:a3:5c:74:73:af:c1:64:0a:d8:
                    f1:b2:3b:7e:54:a5:42:f9:c5:c8:23:4b:fa:a8:97:
                    e9:5e:e2:25:47:0d:e0:c2:ec:05:90:e4:4b:c9:d9:
                    31:a6:aa:9c:cc:59:78:ba:02:db:5a:38:0e:7d:e7:
                    c3:bf:1d:c8:0e:b2:d5:32:62:f1:39:08:93:91:ce:
                    6e:c9:2d:e9:4f:af:1b:3b:7c:be:ae:76:09:fd:43:
                    b6:01
                Exponent: 65537 (0x10001)
        X509v3 extensions:
            X509v3 Extended Key Usage: 
                TLS Web Server Authentication
            X509v3 CRL Distribution Points: 
                Full Name:
                  URI:http://www.example.com/example_ca.crl
            X509v3 Certificate Policies: 
                Policy: 1.3.6.1.4.1.40808.1.3.2
            X509v3 Subject Key Identifier: 
                86:6E:DF:F0:45:88:3D:41:E1:54:C1:00:15:5E:A8:96:15:DE:53:2B
            X509v3 Authority Key Identifier: 
                00:25:E0:4D:71:4C:6E:08:77:FB:2B:B7:CA:C2:99:BF:C5:84:82:B9
    Signature Algorithm: sha256WithRSAEncryption
    Signature Value:
        00:1d:b2:01:e6:2d:65:c3:b1:34:11:ec:06:79:0d:33:02:25:
        3f:05:b7:b1:25:d8:92:d0:e6:c3:b6:25:7f:8e:b8:85:bf:05:
        35:6c:8b:7b:a7:c3:97:6a:8e:08:6d:29:4a:7d:65:53:68:38:
        c5:19:0a:7d:bb:cd:d7:55:7b:58:05:00:2c:99:a2:f9:13:eb:
        f4:39:c3:32:7b:41:7d:4f:ad:16:41:42:60:ec:64:3b:fc:46:
        e2:e2:a9:e6:37:16:f2:23:c9:4f:f3:e3:59:6d:45:83:ae:68:
        a9:c6:79:2d:d5:af:0c:1c:52:8d:1b:ed:4b:f4:5e:47:67:bd:
        f8:fd:47:69:c2:03:94:00:a8:57:53:db:d4:9d:1d:9e:fb:4d:
        7c:f4:cb:7f:4f:a3:6b:e9:c9:8e:c0:fa:16:f3:7e:5e:44:69:
        bb:6c:af:c1:54:ec:8d:82:b0:f1:ca:d4:5f:f6:e0:90:40:e2:
        eb:15:3b:1d:b2:22:ea:eb:b3:c1:66:35:b7:d8:6c:55:33:22:
        87:c2:97:32:aa:83:6a:81:b8:19:e9:db:bd:4a:46:3d:5d:2f:
        4f:f6:80:2b:8a:b7:88:99:cb:c9:af:ee:e7:31:40:92:48:a6:
        3f:55:29:b8:a7:13:ea:9d:3a:5f:b8:0a:a3:4d:a0:0d:cd:33:
        fb:5a:1e:d0
-----BEGIN CERTIFICATE-----
MIIENTCCAx2gAwIBAgIBATANBgkqhkiG9w0BAQsFADCBizELMAkGA1UEBhMCR0wx
EjAQBgNVBAgMCU5ldyBXb3JsZDEPMA0GA1UEBwwGUmFmdGVsMR0wGwYDVQQKDBRT
dHJhdyBIYXQgTmV0d29ya2luZzEeMBwGCSqGSIb3DQEJARYPY2FAc3RyYXdoYXQu
Y29tMRgwFgYDVQQDDA9jYS5zdHJhd2hhdC5jb20wHhcNMjMxMjA2MTQ0NzMxWhcN
MjQwMjA0MTQ0NzMxWjCBgjELMAkGA1UEBhMCR0wxEjAQBgNVBAgMCU5ldyBXb3Js
ZDEdMBsGA1UECgwUU3RyYXcgSGF0IE5ldHdvcmtpbmcxHDAaBgNVBAMME3JhZGl1
cy5zdHJhd2hhdC5jb20xIjAgBgkqhkiG9w0BCQEWE3JhZGl1c0BzdHJhd2hhdC5j
b20wggEiMA0GCSqGSIb3DQEBAQUAA4IBDwAwggEKAoIBAQCSZ6JUSNeoLHnfJrWE
UFntvzgI4nqTUj4hz968UZQBp/EQdQZtDr0xrL9CIQt6nwg0Zm0i7HNU68BR/29t
Clubz4jTI/yx79dkGyruqr2UXzN4UeR43q2lmykvo+38rZcYVn2w1/iXpLsPMwrV
YGlqEz/DLkUX6pN6SNKntXGfffETZSzOQx23bzW8+e2gfW/pEYima9chWhESNSkY
07nDbFQzAnyottCIzaNcdHOvwWQK2PGyO35UpUL5xcgjS/qol+le4iVHDeDC7AWQ
5EvJ2TGmqpzMWXi6AttaOA5958O/HcgOstUyYvE5CJORzm7JLelPrxs7fL6udgn9
Q7YBAgMBAAGjgaowgacwEwYDVR0lBAwwCgYIKwYBBQUHAwEwNgYDVR0fBC8wLTAr
oCmgJ4YlaHR0cDovL3d3dy5leGFtcGxlLmNvbS9leGFtcGxlX2NhLmNybDAYBgNV
HSAEETAPMA0GCysGAQQBgr5oAQMCMB0GA1UdDgQWBBSGbt/wRYg9QeFUwQAVXqiW
Fd5TKzAfBgNVHSMEGDAWgBQAJeBNcUxuCHf7K7fKwpm/xYSCuTANBgkqhkiG9w0B
AQsFAAOCAQEAAB2yAeYtZcOxNBHsBnkNMwIlPwW3sSXYktDmw7Ylf464hb8FNWyL
e6fDl2qOCG0pSn1lU2g4xRkKfbvN11V7WAUALJmi+RPr9DnDMntBfU+tFkFCYOxk
O/xG4uKp5jcW8iPJT/PjWW1Fg65oqcZ5LdWvDBxSjRvtS/ReR2e9+P1HacIDlACo
V1Pb1J0dnvtNfPTLf0+ja+nJjsD6FvN+XkRpu2yvwVTsjYKw8crUX/bgkEDi6xU7
HbIi6uuzwWY1t9hsVTMih8KXMqqDaoG4GenbvUpGPV0vT/aAK4q3iJnLya/u5zFA
kkimP1UpuKcT6p06X7gKo02gDc0z+1oe0A==
-----END CERTIFICATE-----
