Certificate:
    Data:
        Version: 3 (0x2)
        Serial Number: 2 (0x2)
        Signature Algorithm: sha256WithRSAEncryption
        Issuer: C=GL, ST=New World, L=Raftel, O=Straw Hat Networking/emailAddress=ca@strawhat.com, CN=ca.strawhat.com
        Validity
            Not Before: Dec  6 14:47:35 2023 GMT
            Not After : Feb  4 14:47:35 2024 GMT
        Subject: C=GL, ST=New World, O=Straw Hat Networking, CN=luffy@strawhat.com/emailAddress=luffy@strawhat.com
        Subject Public Key Info:
            Public Key Algorithm: rsaEncryption
                Public-Key: (2048 bit)
                Modulus:
                    00:e1:a7:22:82:f6:21:87:4b:b1:d5:b7:63:48:97:
                    fe:96:d4:82:f3:33:ce:88:d9:d0:15:26:0b:3c:a4:
                    1d:00:df:a2:4f:33:74:60:e3:78:cf:f1:02:c0:9e:
                    7d:48:c6:92:46:d8:18:55:dc:65:27:b9:1f:61:43:
                    ed:b9:a6:3f:a0:89:90:df:da:56:ce:79:e8:c0:e2:
                    72:f1:13:c3:bc:4a:88:5d:73:d9:79:61:61:f4:1d:
                    e0:93:88:07:b4:23:77:8e:d3:ea:e2:43:a7:29:b7:
                    c4:d4:67:a6:6b:7c:e8:d4:8d:6f:fc:65:0c:45:87:
                    39:72:24:71:61:38:ee:29:51:55:ca:63:6e:e1:93:
                    f5:62:0d:3e:90:79:62:d2:e3:22:f7:e0:e3:e7:91:
                    35:99:c6:4e:76:1c:9a:b1:ec:32:98:a6:ff:22:8f:
                    75:ea:e9:76:2c:d9:91:5d:b4:c7:80:86:6b:c1:02:
                    99:e6:61:fe:20:fc:64:de:66:c8:04:b4:f7:1f:cd:
                    50:ae:ec:f8:41:49:1e:a1:8d:46:b1:7c:86:d5:49:
                    87:5d:7a:38:7d:8e:e8:31:2a:a1:d7:8a:e0:96:8c:
                    74:08:3b:48:f0:91:50:80:b1:56:b7:d1:53:07:0e:
                    ba:db:b1:7d:32:59:95:5e:a0:2d:12:1a:33:8b:fa:
                    ac:db
                Exponent: 65537 (0x10001)
        X509v3 extensions:
            X509v3 Extended Key Usage: 
                TLS Web Client Authentication
            X509v3 CRL Distribution Points: 
                Full Name:
                  URI:http://www.example.com/example_ca.crl
            X509v3 Subject Key Identifier: 
                43:D7:2D:F9:0A:EE:6B:9F:D1:11:FF:36:58:C1:AE:2F:E4:B0:9F:03
            X509v3 Authority Key Identifier: 
                00:25:E0:4D:71:4C:6E:08:77:FB:2B:B7:CA:C2:99:BF:C5:84:82:B9
    Signature Algorithm: sha256WithRSAEncryption
    Signature Value:
        2d:c5:43:21:6a:86:b1:a2:ef:58:b0:74:2d:40:26:6f:8a:0a:
        6f:51:e9:75:ef:50:23:5f:37:6e:39:b1:c4:99:19:56:b1:c0:
        4c:76:3c:74:ab:ea:d7:85:cf:3c:4c:55:36:a0:ed:e7:5e:a6:
        b5:d9:46:76:64:81:5d:82:33:93:c8:c1:3e:82:df:dd:3c:39:
        b1:94:dd:ed:34:ce:4b:6e:b2:87:ea:1f:f7:6e:81:89:5b:8a:
        60:e5:67:93:d1:d3:4c:1c:d0:87:22:8a:93:0c:bb:c0:f0:08:
        ca:12:e9:d5:8b:c1:38:06:75:54:df:95:0e:1c:43:55:47:62:
        47:0f:96:1e:fc:b1:01:ed:09:2b:01:df:8c:58:9b:ff:d8:3a:
        f8:cd:18:6d:b6:87:5f:39:b7:23:70:43:ac:ea:9e:db:b0:9a:
        65:bc:bf:e7:5f:0d:14:0e:60:0b:66:a2:47:86:b3:29:12:a9:
        c0:86:6e:a3:54:bf:f5:99:e5:79:68:fc:68:5d:e3:2e:aa:9b:
        1e:1c:56:ec:1c:01:17:bf:9d:45:ed:b1:07:b5:d0:57:80:37:
        c6:55:18:ec:b3:1c:6b:f5:01:8d:fd:d6:93:00:21:96:ef:c2:
        87:d0:3c:c4:87:7f:7a:df:a7:54:c9:f5:d7:77:e9:0f:81:17:
        d0:30:5c:4c
-----BEGIN CERTIFICATE-----
MIIEGTCCAwGgAwIBAgIBAjANBgkqhkiG9w0BAQsFADCBizELMAkGA1UEBhMCR0wx
EjAQBgNVBAgMCU5ldyBXb3JsZDEPMA0GA1UEBwwGUmFmdGVsMR0wGwYDVQQKDBRT
dHJhdyBIYXQgTmV0d29ya2luZzEeMBwGCSqGSIb3DQEJARYPY2FAc3RyYXdoYXQu
Y29tMRgwFgYDVQQDDA9jYS5zdHJhd2hhdC5jb20wHhcNMjMxMjA2MTQ0NzM1WhcN
MjQwMjA0MTQ0NzM1WjCBgDELMAkGA1UEBhMCR0wxEjAQBgNVBAgMCU5ldyBXb3Js
ZDEdMBsGA1UECgwUU3RyYXcgSGF0IE5ldHdvcmtpbmcxGzAZBgNVBAMMEmx1ZmZ5
QHN0cmF3aGF0LmNvbTEhMB8GCSqGSIb3DQEJARYSbHVmZnlAc3RyYXdoYXQuY29t
MIIBIjANBgkqhkiG9w0BAQEFAAOCAQ8AMIIBCgKCAQEA4acigvYhh0ux1bdjSJf+
ltSC8zPOiNnQFSYLPKQdAN+iTzN0YON4z/ECwJ59SMaSRtgYVdxlJ7kfYUPtuaY/
oImQ39pWznnowOJy8RPDvEqIXXPZeWFh9B3gk4gHtCN3jtPq4kOnKbfE1Gema3zo
1I1v/GUMRYc5ciRxYTjuKVFVymNu4ZP1Yg0+kHli0uMi9+Dj55E1mcZOdhyasewy
mKb/Io916ul2LNmRXbTHgIZrwQKZ5mH+IPxk3mbIBLT3H81Qruz4QUkeoY1GsXyG
1UmHXXo4fY7oMSqh14rglox0CDtI8JFQgLFWt9FTBw6627F9MlmVXqAtEhozi/qs
2wIDAQABo4GQMIGNMBMGA1UdJQQMMAoGCCsGAQUFBwMCMDYGA1UdHwQvMC0wK6Ap
oCeGJWh0dHA6Ly93d3cuZXhhbXBsZS5jb20vZXhhbXBsZV9jYS5jcmwwHQYDVR0O
BBYEFEPXLfkK7muf0RH/NljBri/ksJ8DMB8GA1UdIwQYMBaAFAAl4E1xTG4Id/sr
t8rCmb/FhIK5MA0GCSqGSIb3DQEBCwUAA4IBAQAtxUMhaoaxou9YsHQtQCZvigpv
Uel171AjXzduObHEmRlWscBMdjx0q+rXhc88TFU2oO3nXqa12UZ2ZIFdgjOTyME+
gt/dPDmxlN3tNM5LbrKH6h/3boGJW4pg5WeT0dNMHNCHIoqTDLvA8AjKEunVi8E4
BnVU35UOHENVR2JHD5Ye/LEB7QkrAd+MWJv/2Dr4zRhttodfObcjcEOs6p7bsJpl
vL/nXw0UDmALZqJHhrMpEqnAhm6jVL/1meV5aPxoXeMuqpseHFbsHAEXv51F7bEH
tdBXgDfGVRjssxxr9QGN/daTACGW78KH0DzEh39636dUyfXXd+kPgRfQMFxM
-----END CERTIFICATE-----
