Certificate:
    Data:
        Version: 3 (0x2)
        Serial Number: 1 (0x1)
        Signature Algorithm: sha256WithRSAEncryption
        Issuer: C=FR, ST=Radius, L=Somewhere, O=Example Inc./emailAddress=admin@example.org, CN=Example Certificate Authority
        Validity
            Not Before: Nov 26 09:28:23 2023 GMT
            Not After : Jan 25 09:28:23 2024 GMT
        Subject: C=FR, ST=Radius, O=Example Inc., CN=Example Server Certificate/emailAddress=admin@example.org
        Subject Public Key Info:
            Public Key Algorithm: rsaEncryption
                Public-Key: (2048 bit)
                Modulus:
                    00:a7:52:28:10:1f:66:c3:18:66:bb:c0:f2:96:a0:
                    dc:64:9d:32:fd:29:6c:bd:9c:b0:26:95:4c:7c:58:
                    b1:46:bb:83:79:86:40:d4:eb:e1:58:80:01:f6:cc:
                    6e:f3:f8:b1:c8:2f:c4:b5:62:43:da:57:79:df:fa:
                    6b:b7:b6:0d:be:7d:92:f8:46:89:2a:5c:d4:49:85:
                    b4:d9:41:06:12:26:41:2c:bc:a8:15:ae:1a:d0:68:
                    77:9c:2d:e3:36:5d:04:8d:75:dd:d3:2d:f5:bc:25:
                    ba:76:08:36:9a:08:3e:6e:86:74:85:0e:61:62:66:
                    52:b3:0c:9d:2c:cb:0d:6c:e6:25:f8:61:2c:73:05:
                    a7:8e:9a:67:18:78:29:03:65:ed:ff:ef:81:5d:52:
                    37:7c:e1:7f:57:1d:9b:38:02:57:44:d6:40:1c:be:
                    eb:7f:17:49:59:da:6c:31:a2:9b:1a:6b:67:77:e9:
                    43:0b:0c:cb:d6:68:62:cf:a7:86:d4:f9:f6:2f:e0:
                    73:b3:2e:93:e6:42:cb:f2:af:a0:14:47:83:be:88:
                    e5:e2:76:56:7a:81:db:f8:11:b2:f8:01:d6:90:d6:
                    8f:b5:ee:9b:9c:79:98:02:3b:67:93:85:28:e6:2a:
                    d4:bf:d2:73:ed:e4:61:36:3d:a2:2f:a9:b5:31:7d:
                    3d:7d
                Exponent: 65537 (0x10001)
        X509v3 extensions:
            X509v3 Extended Key Usage: 
                TLS Web Server Authentication
            X509v3 CRL Distribution Points: 
                Full Name:
                  URI:http://www.example.com/example_ca.crl
            X509v3 Certificate Policies: 
                Policy: 1.3.6.1.4.1.40808.1.3.2
            X509v3 Subject Key Identifier: 
                D8:3E:53:97:DB:91:2A:B5:DE:A1:E3:49:7B:B1:C6:17:5D:56:29:69
            X509v3 Authority Key Identifier: 
                56:75:F6:06:9E:AE:09:0D:16:71:23:11:04:FA:1B:16:1C:B0:91:2C
    Signature Algorithm: sha256WithRSAEncryption
    Signature Value:
        0f:7c:30:0a:60:03:7d:fa:e6:b0:90:12:1e:b7:c5:16:57:d5:
        9e:92:d2:0f:17:45:41:fe:2f:19:4c:c8:c6:fa:07:92:34:cd:
        b0:44:e4:10:a7:02:7d:7b:5b:2c:99:27:30:3e:9b:ce:5f:43:
        58:3c:e2:b5:8a:7e:e4:d3:58:37:a9:68:b3:ba:51:83:9e:55:
        18:b2:b6:cf:89:2f:36:57:ca:47:5b:aa:28:34:dc:b3:ba:28:
        fa:19:ab:f9:66:06:e8:d0:95:9e:48:4e:b0:1d:24:d8:96:96:
        66:74:8e:f1:b9:dc:58:1c:22:50:5c:01:42:75:1e:8a:e5:6c:
        ac:0b:66:a9:9f:20:7f:c5:21:2a:fd:3f:29:23:93:f6:50:1c:
        49:c4:c0:b3:44:06:68:ed:8a:60:76:68:7a:6f:c8:a1:9f:dd:
        7d:42:e4:b3:71:7b:d0:71:e9:5f:48:3a:f2:c0:ff:08:be:1e:
        77:90:d1:58:4f:01:ff:cb:b7:7d:0a:35:1e:23:fe:76:6b:1e:
        fe:c6:3f:67:84:08:0d:01:81:9f:39:3a:9f:c4:84:9e:96:a1:
        d3:07:b6:49:87:6e:fd:59:93:3d:74:46:03:5e:0e:d3:1a:65:
        d6:53:2b:8d:46:38:2e:a5:45:5e:5e:33:2d:71:b5:f2:ae:74:
        a5:b8:50:5d
-----BEGIN CERTIFICATE-----
MIIENjCCAx6gAwIBAgIBATANBgkqhkiG9w0BAQsFADCBkzELMAkGA1UEBhMCRlIx
DzANBgNVBAgMBlJhZGl1czESMBAGA1UEBwwJU29tZXdoZXJlMRUwEwYDVQQKDAxF
eGFtcGxlIEluYy4xIDAeBgkqhkiG9w0BCQEWEWFkbWluQGV4YW1wbGUub3JnMSYw
JAYDVQQDDB1FeGFtcGxlIENlcnRpZmljYXRlIEF1dGhvcml0eTAeFw0yMzExMjYw
OTI4MjNaFw0yNDAxMjUwOTI4MjNaMHwxCzAJBgNVBAYTAkZSMQ8wDQYDVQQIDAZS
YWRpdXMxFTATBgNVBAoMDEV4YW1wbGUgSW5jLjEjMCEGA1UEAwwaRXhhbXBsZSBT
ZXJ2ZXIgQ2VydGlmaWNhdGUxIDAeBgkqhkiG9w0BCQEWEWFkbWluQGV4YW1wbGUu
b3JnMIIBIjANBgkqhkiG9w0BAQEFAAOCAQ8AMIIBCgKCAQEAp1IoEB9mwxhmu8Dy
lqDcZJ0y/SlsvZywJpVMfFixRruDeYZA1OvhWIAB9sxu8/ixyC/EtWJD2ld53/pr
t7YNvn2S+EaJKlzUSYW02UEGEiZBLLyoFa4a0Gh3nC3jNl0EjXXd0y31vCW6dgg2
mgg+boZ0hQ5hYmZSswydLMsNbOYl+GEscwWnjppnGHgpA2Xt/++BXVI3fOF/Vx2b
OAJXRNZAHL7rfxdJWdpsMaKbGmtnd+lDCwzL1mhiz6eG1Pn2L+Bzsy6T5kLL8q+g
FEeDvojl4nZWeoHb+BGy+AHWkNaPte6bnHmYAjtnk4Uo5irUv9Jz7eRhNj2iL6m1
MX09fQIDAQABo4GqMIGnMBMGA1UdJQQMMAoGCCsGAQUFBwMBMDYGA1UdHwQvMC0w
K6ApoCeGJWh0dHA6Ly93d3cuZXhhbXBsZS5jb20vZXhhbXBsZV9jYS5jcmwwGAYD
VR0gBBEwDzANBgsrBgEEAYK+aAEDAjAdBgNVHQ4EFgQU2D5Tl9uRKrXeoeNJe7HG
F11WKWkwHwYDVR0jBBgwFoAUVnX2Bp6uCQ0WcSMRBPobFhywkSwwDQYJKoZIhvcN
AQELBQADggEBAA98MApgA3365rCQEh63xRZX1Z6S0g8XRUH+LxlMyMb6B5I0zbBE
5BCnAn17WyyZJzA+m85fQ1g84rWKfuTTWDepaLO6UYOeVRiyts+JLzZXykdbqig0
3LO6KPoZq/lmBujQlZ5ITrAdJNiWlmZ0jvG53FgcIlBcAUJ1HorlbKwLZqmfIH/F
ISr9Pykjk/ZQHEnEwLNEBmjtimB2aHpvyKGf3X1C5LNxe9Bx6V9IOvLA/wi+HneQ
0VhPAf/Lt30KNR4j/nZrHv7GP2eECA0BgZ85Op/EhJ6WodMHtkmHbv1Zkz10RgNe
DtMaZdZTK41GOC6lRV5eMy1xtfKudKW4UF0=
-----END CERTIFICATE-----
