Certificate:
    Data:
        Version: 3 (0x2)
        Serial Number: 2 (0x2)
        Signature Algorithm: sha256WithRSAEncryption
        Issuer: C=FR, ST=Radius, L=Somewhere, O=Example Inc./emailAddress=admin@example.org, CN=Example Certificate Authority
        Validity
            Not Before: Nov 26 09:28:23 2023 GMT
            Not After : Jan 25 09:28:23 2024 GMT
        Subject: C=FR, ST=Radius, O=Example Inc., CN=user@example.org/emailAddress=user@example.org
        Subject Public Key Info:
            Public Key Algorithm: rsaEncryption
                Public-Key: (2048 bit)
                Modulus:
                    00:e7:5b:6c:81:44:d4:e7:de:e4:ac:0d:c0:87:74:
                    39:80:9a:ea:9f:d8:8e:b6:1f:64:d5:fd:d9:65:3c:
                    b0:35:63:a4:f0:ab:1a:6a:ce:4f:d7:a8:c2:7e:e6:
                    20:e7:54:d2:3f:70:8d:cf:da:56:05:b2:b5:12:6d:
                    06:fa:eb:39:1b:57:b7:92:eb:0c:2a:ba:e0:13:71:
                    f5:c3:22:41:b3:a6:c6:31:62:fb:09:8d:09:e2:d0:
                    b5:79:fa:6a:78:dc:78:d2:b4:6f:b7:34:eb:5d:a5:
                    22:db:5c:58:a0:bb:d3:3f:81:dc:0b:b2:e2:c4:c8:
                    4b:1e:6e:4c:58:ad:fb:da:75:4c:8a:17:44:60:cf:
                    77:59:1b:7e:3c:6c:4d:59:c0:82:e8:79:6f:20:23:
                    e4:3d:26:38:d3:af:63:6d:09:42:2d:09:38:e3:fe:
                    bc:89:37:89:2b:33:7c:9c:1f:9a:96:61:60:29:d5:
                    0c:ad:6d:4a:71:ff:21:85:5e:15:d3:4d:07:17:cb:
                    c0:df:f0:84:c1:43:47:bb:85:99:48:59:4f:55:10:
                    15:f9:6b:fc:04:fe:83:4d:1e:56:5d:3c:4b:7b:1f:
                    7f:02:ff:83:a3:f2:19:ed:5f:6c:d2:cd:0b:d5:da:
                    13:e6:3f:bf:59:97:9c:83:1f:04:d8:f2:59:c6:32:
                    8d:d1
                Exponent: 65537 (0x10001)
        X509v3 extensions:
            X509v3 Extended Key Usage: 
                TLS Web Client Authentication
            X509v3 CRL Distribution Points: 
                Full Name:
                  URI:http://www.example.com/example_ca.crl
            X509v3 Subject Key Identifier: 
                CD:12:0D:9A:9A:B0:E3:61:A7:5E:04:EB:AD:FC:B7:73:BD:11:08:46
            X509v3 Authority Key Identifier: 
                56:75:F6:06:9E:AE:09:0D:16:71:23:11:04:FA:1B:16:1C:B0:91:2C
    Signature Algorithm: sha256WithRSAEncryption
    Signature Value:
        77:d7:b3:11:37:8a:71:b7:b2:48:65:d4:5e:e7:fe:a0:0b:63:
        09:11:80:aa:7e:f3:9a:f2:a7:35:36:79:ba:53:b1:91:cf:48:
        ee:0d:cf:b4:d4:09:06:fc:41:b7:03:4d:41:90:a9:c7:3f:d5:
        75:dd:ae:90:e2:ab:19:31:ad:50:6c:eb:71:36:5a:84:01:ce:
        8e:44:77:28:67:ec:a6:66:86:64:22:b8:de:48:cf:31:ad:2f:
        92:a7:b0:ee:0b:6a:8c:95:06:a5:6f:0f:a8:d7:54:4a:9c:14:
        c9:cb:bc:73:8c:79:14:19:e8:3e:56:17:8b:98:7f:d5:eb:ad:
        84:0c:2c:e4:de:c8:6b:50:f2:fc:e1:6d:07:ce:18:aa:83:b4:
        fd:2d:a2:c8:38:66:4e:35:5b:27:98:55:d5:74:b0:94:ff:4c:
        0d:0a:a1:bd:9e:a6:3b:25:b3:be:d0:e4:e4:5f:72:66:9f:8c:
        9d:34:da:58:ed:d0:47:b2:e4:d3:c1:ec:e9:bb:0c:74:be:19:
        e5:18:89:0e:fb:6e:0b:84:94:ea:96:7a:f2:f5:40:bd:9d:1a:
        4f:e2:73:c9:a0:da:af:0b:5f:c8:c8:84:a2:d8:23:ae:e6:6d:
        93:58:ea:d3:2c:ca:11:cd:24:fe:2a:ab:0f:a0:05:8c:d2:ae:
        31:99:18:65
-----BEGIN CERTIFICATE-----
MIIEETCCAvmgAwIBAgIBAjANBgkqhkiG9w0BAQsFADCBkzELMAkGA1UEBhMCRlIx
DzANBgNVBAgMBlJhZGl1czESMBAGA1UEBwwJU29tZXdoZXJlMRUwEwYDVQQKDAxF
eGFtcGxlIEluYy4xIDAeBgkqhkiG9w0BCQEWEWFkbWluQGV4YW1wbGUub3JnMSYw
JAYDVQQDDB1FeGFtcGxlIENlcnRpZmljYXRlIEF1dGhvcml0eTAeFw0yMzExMjYw
OTI4MjNaFw0yNDAxMjUwOTI4MjNaMHExCzAJBgNVBAYTAkZSMQ8wDQYDVQQIDAZS
YWRpdXMxFTATBgNVBAoMDEV4YW1wbGUgSW5jLjEZMBcGA1UEAwwQdXNlckBleGFt
cGxlLm9yZzEfMB0GCSqGSIb3DQEJARYQdXNlckBleGFtcGxlLm9yZzCCASIwDQYJ
KoZIhvcNAQEBBQADggEPADCCAQoCggEBAOdbbIFE1Ofe5KwNwId0OYCa6p/YjrYf
ZNX92WU8sDVjpPCrGmrOT9eown7mIOdU0j9wjc/aVgWytRJtBvrrORtXt5LrDCq6
4BNx9cMiQbOmxjFi+wmNCeLQtXn6anjceNK0b7c0612lIttcWKC70z+B3Auy4sTI
Sx5uTFit+9p1TIoXRGDPd1kbfjxsTVnAguh5byAj5D0mONOvY20JQi0JOOP+vIk3
iSszfJwfmpZhYCnVDK1tSnH/IYVeFdNNBxfLwN/whMFDR7uFmUhZT1UQFflr/AT+
g00eVl08S3sffwL/g6PyGe1fbNLNC9XaE+Y/v1mXnIMfBNjyWcYyjdECAwEAAaOB
kDCBjTATBgNVHSUEDDAKBggrBgEFBQcDAjA2BgNVHR8ELzAtMCugKaAnhiVodHRw
Oi8vd3d3LmV4YW1wbGUuY29tL2V4YW1wbGVfY2EuY3JsMB0GA1UdDgQWBBTNEg2a
mrDjYadeBOut/LdzvREIRjAfBgNVHSMEGDAWgBRWdfYGnq4JDRZxIxEE+hsWHLCR
LDANBgkqhkiG9w0BAQsFAAOCAQEAd9ezETeKcbeySGXUXuf+oAtjCRGAqn7zmvKn
NTZ5ulOxkc9I7g3PtNQJBvxBtwNNQZCpxz/Vdd2ukOKrGTGtUGzrcTZahAHOjkR3
KGfspmaGZCK43kjPMa0vkqew7gtqjJUGpW8PqNdUSpwUycu8c4x5FBnoPlYXi5h/
1euthAws5N7Ia1Dy/OFtB84YqoO0/S2iyDhmTjVbJ5hV1XSwlP9MDQqhvZ6mOyWz
vtDk5F9yZp+MnTTaWO3QR7Lk08Hs6bsMdL4Z5RiJDvtuC4SU6pZ68vVAvZ0aT+Jz
yaDarwtfyMiEotgjruZtk1jq0yzKEc0k/iqrD6AFjNKuMZkYZQ==
-----END CERTIFICATE-----
